

Microchip MPLAB XC8 Assembler V3.00 build 20241204225717 
                                                                                               Sun Jun 22 15:20:18 2025

Microchip MPLAB XC8 C Compiler v3.00 (Free license) build 20241204225717 Og1 
     1                           	processor	16F877A
     2                           	pagewidth 120
     3                           	opt	flic
     4                           	psect	idataBANK0,global,class=CODE,space=0,delta=2,noexec
     5                           	psect	idataBANK1,global,class=CODE,space=0,delta=2,noexec
     6                           	psect	nvBANK0,global,class=BANK0,space=1,delta=1,noexec
     7                           	psect	strings,global,class=STRING,space=0,delta=2,noexec
     8                           	psect	stringtext,global,reloc=256,class=STRCODE,space=0,delta=2,noexec
     9                           	psect	cinit,global,class=CODE,space=0,merge=1,delta=2
    10                           	psect	bssCOMMON,global,class=COMMON,space=1,delta=1,noexec
    11                           	psect	bssBANK0,global,class=BANK0,space=1,delta=1,noexec
    12                           	psect	dataBANK0,global,class=BANK0,space=1,delta=1,noexec
    13                           	psect	bssBANK1,global,class=BANK1,space=1,delta=1,noexec
    14                           	psect	dataBANK1,global,class=BANK1,space=1,delta=1,noexec
    15                           	psect	inittext,global,class=CODE,space=0,delta=2
    16                           	psect	cstackBANK1,global,class=BANK1,space=1,delta=1,noexec
    17                           	psect	cstackCOMMON,global,class=COMMON,space=1,delta=1,noexec
    18                           	psect	cstackBANK0,global,class=BANK0,space=1,delta=1,noexec
    19                           	psect	maintext,global,class=CODE,space=0,split=1,delta=2
    20                           	psect	text1,local,class=CODE,space=0,merge=1,delta=2
    21                           	psect	text2,local,class=CODE,space=0,merge=1,delta=2
    22                           	psect	text3,local,class=CODE,space=0,merge=1,delta=2
    23                           	psect	text4,local,class=CODE,space=0,merge=1,delta=2
    24                           	psect	text5,local,class=CODE,space=0,merge=1,delta=2
    25                           	psect	text6,local,class=CODE,space=0,merge=1,delta=2
    26                           	psect	text7,local,class=CODE,space=0,merge=1,delta=2,group=1
    27                           	psect	text8,local,class=CODE,space=0,merge=1,delta=2,group=1
    28                           	psect	text9,local,class=CODE,space=0,merge=1,delta=2,group=1
    29                           	psect	text10,local,class=CODE,space=0,merge=1,delta=2,group=1
    30                           	psect	text11,local,class=CODE,space=0,merge=1,delta=2,group=1
    31                           	psect	text12,local,class=CODE,space=0,merge=1,delta=2,group=1
    32                           	psect	text13,local,class=CODE,space=0,merge=1,delta=2,group=1
    33                           	psect	text14,local,class=CODE,space=0,merge=1,delta=2,group=1
    34                           	psect	text15,local,class=CODE,space=0,merge=1,delta=2,group=1
    35                           	psect	text16,local,class=CODE,space=0,merge=1,delta=2,group=1
    36                           	psect	text17,local,class=CODE,space=0,merge=1,delta=2
    37                           	psect	text18,local,class=CODE,space=0,merge=1,delta=2
    38                           	psect	text19,local,class=CODE,space=0,merge=1,delta=2
    39                           	psect	text20,local,class=CODE,space=0,merge=1,delta=2
    40                           	psect	text21,local,class=CODE,space=0,merge=1,delta=2
    41                           	psect	text22,local,class=CODE,space=0,merge=1,delta=2
    42                           	psect	text23,local,class=CODE,space=0,merge=1,delta=2
    43                           	psect	text24,local,class=CODE,space=0,merge=1,delta=2
    44                           	psect	text25,local,class=CODE,space=0,merge=1,delta=2
    45                           	psect	text26,local,class=CODE,space=0,merge=1,delta=2
    46                           	psect	text27,local,class=CODE,space=0,merge=1,delta=2
    47                           	psect	intentry,global,class=CODE,space=0,delta=2
    48                           	psect	config,global,abs,ovrld,class=CONFIG,space=4,delta=2,noexec
    49                           	dabs	1,0x7E,2
    50     0000                     
    51                           ; Version 2.20
    52                           ; Generated 12/02/2020 GMT
    53                           ; 
    54                           ; Copyright © 2020, Microchip Technology Inc. and its subsidiaries ("Microchip")
    55                           ; All rights reserved.
    56                           ; 
    57                           ; This software is developed by Microchip Technology Inc. and its subsidiaries ("Microch
      +                          ip").
    58                           ; 
    59                           ; Redistribution and use in source and binary forms, with or without modification, are
    60                           ; permitted provided that the following conditions are met:
    61                           ; 
    62                           ;     1. Redistributions of source code must retain the above copyright notice, this lis
      +                          t of
    63                           ;        conditions and the following disclaimer.
    64                           ; 
    65                           ;     2. Redistributions in binary form must reproduce the above copyright notice, this 
      +                          list
    66                           ;        of conditions and the following disclaimer in the documentation and/or other
    67                           ;        materials provided with the distribution.
    68                           ; 
    69                           ;     3. Microchip's name may not be used to endorse or promote products derived from th
      +                          is
    70                           ;        software without specific prior written permission.
    71                           ; 
    72                           ; THIS SOFTWARE IS PROVIDED BY MICROCHIP "AS IS" AND ANY EXPRESS OR IMPLIED WARRANTIES,
    73                           ; INCLUDING, BUT NOT LIMITED TO, THE IMPLIED WARRANTIES OF MERCHANTABILITY AND FITNESS F
      +                          OR
    74                           ; PURPOSE ARE DISCLAIMED.  IN NO EVENT SHALL MICROCHIP BE LIABLE FOR ANY DIRECT, INDIREC
      +                          T,
    75                           ; INCIDENTAL, SPECIAL, EXEMPLARY, OR CONSEQUENTIAL DAMAGES (INCLUDING BUT NOT LIMITED TO
    76                           ; PROCUREMENT OF SUBSTITUTE GOODS OR SERVICES; LOSS OF USE, DATA OR PROFITS; OR BUSINESS
    77                           ; INTERRUPTION) HOWSOEVER CAUSED AND ON ANY THEORY OF LIABILITY, WHETHER IN CONTRACT, ST
      +                          RICT
    78                           ; LIABILITY, OR TORT (INCLUDING NEGLIGENCE OR OTHERWISE) ARISING IN ANY WAY OUT OF THE U
      +                          SE OF
    79                           ; THIS SOFTWARE, EVEN IF ADVISED OF THE POSSIBILITY OF SUCH DAMAGE.
    80                           ; 
    81                           ; 
    82                           ; Code-generator required, PIC16F877A Definitions
    83                           ; 
    84                           ; SFR Addresses
    85     0004                     fsr             equ	4
    86     0004                     fsr0            equ	4
    87     0000                     indf            equ	0
    88     0000                     indf0           equ	0
    89     0002                     pc              equ	2
    90     0002                     pcl             equ	2
    91     000A                     pclath          equ	10
    92     0003                     status          equ	3
    93     0000                     INDF            equ	0	;# 
    94     0001                     TMR0            equ	1	;# 
    95     0002                     PCL             equ	2	;# 
    96     0003                     STATUS          equ	3	;# 
    97     0004                     FSR             equ	4	;# 
    98     0005                     PORTA           equ	5	;# 
    99     0006                     PORTB           equ	6	;# 
   100     0007                     PORTC           equ	7	;# 
   101     0008                     PORTD           equ	8	;# 
   102     0009                     PORTE           equ	9	;# 
   103     000A                     PCLATH          equ	10	;# 
   104     000B                     INTCON          equ	11	;# 
   105     000C                     PIR1            equ	12	;# 
   106     000D                     PIR2            equ	13	;# 
   107     000E                     TMR1            equ	14	;# 
   108     000E                     TMR1L           equ	14	;# 
   109     000F                     TMR1H           equ	15	;# 
   110     0010                     T1CON           equ	16	;# 
   111     0011                     TMR2            equ	17	;# 
   112     0012                     T2CON           equ	18	;# 
   113     0013                     SSPBUF          equ	19	;# 
   114     0014                     SSPCON          equ	20	;# 
   115     0015                     CCPR1           equ	21	;# 
   116     0015                     CCPR1L          equ	21	;# 
   117     0016                     CCPR1H          equ	22	;# 
   118     0017                     CCP1CON         equ	23	;# 
   119     0018                     RCSTA           equ	24	;# 
   120     0019                     TXREG           equ	25	;# 
   121     001A                     RCREG           equ	26	;# 
   122     001B                     CCPR2           equ	27	;# 
   123     001B                     CCPR2L          equ	27	;# 
   124     001C                     CCPR2H          equ	28	;# 
   125     001D                     CCP2CON         equ	29	;# 
   126     001E                     ADRESH          equ	30	;# 
   127     001F                     ADCON0          equ	31	;# 
   128     0081                     OPTION_REG      equ	129	;# 
   129     0085                     TRISA           equ	133	;# 
   130     0086                     TRISB           equ	134	;# 
   131     0087                     TRISC           equ	135	;# 
   132     0088                     TRISD           equ	136	;# 
   133     0089                     TRISE           equ	137	;# 
   134     008C                     PIE1            equ	140	;# 
   135     008D                     PIE2            equ	141	;# 
   136     008E                     PCON            equ	142	;# 
   137     0091                     SSPCON2         equ	145	;# 
   138     0092                     PR2             equ	146	;# 
   139     0093                     SSPADD          equ	147	;# 
   140     0094                     SSPSTAT         equ	148	;# 
   141     0098                     TXSTA           equ	152	;# 
   142     0099                     SPBRG           equ	153	;# 
   143     009C                     CMCON           equ	156	;# 
   144     009D                     CVRCON          equ	157	;# 
   145     009E                     ADRESL          equ	158	;# 
   146     009F                     ADCON1          equ	159	;# 
   147     010C                     EEDATA          equ	268	;# 
   148     010D                     EEADR           equ	269	;# 
   149     010E                     EEDATH          equ	270	;# 
   150     010F                     EEADRH          equ	271	;# 
   151     018C                     EECON1          equ	396	;# 
   152     018D                     EECON2          equ	397	;# 
   153     0000                     INDF            equ	0	;# 
   154     0001                     TMR0            equ	1	;# 
   155     0002                     PCL             equ	2	;# 
   156     0003                     STATUS          equ	3	;# 
   157     0004                     FSR             equ	4	;# 
   158     0005                     PORTA           equ	5	;# 
   159     0006                     PORTB           equ	6	;# 
   160     0007                     PORTC           equ	7	;# 
   161     0008                     PORTD           equ	8	;# 
   162     0009                     PORTE           equ	9	;# 
   163     000A                     PCLATH          equ	10	;# 
   164     000B                     INTCON          equ	11	;# 
   165     000C                     PIR1            equ	12	;# 
   166     000D                     PIR2            equ	13	;# 
   167     000E                     TMR1            equ	14	;# 
   168     000E                     TMR1L           equ	14	;# 
   169     000F                     TMR1H           equ	15	;# 
   170     0010                     T1CON           equ	16	;# 
   171     0011                     TMR2            equ	17	;# 
   172     0012                     T2CON           equ	18	;# 
   173     0013                     SSPBUF          equ	19	;# 
   174     0014                     SSPCON          equ	20	;# 
   175     0015                     CCPR1           equ	21	;# 
   176     0015                     CCPR1L          equ	21	;# 
   177     0016                     CCPR1H          equ	22	;# 
   178     0017                     CCP1CON         equ	23	;# 
   179     0018                     RCSTA           equ	24	;# 
   180     0019                     TXREG           equ	25	;# 
   181     001A                     RCREG           equ	26	;# 
   182     001B                     CCPR2           equ	27	;# 
   183     001B                     CCPR2L          equ	27	;# 
   184     001C                     CCPR2H          equ	28	;# 
   185     001D                     CCP2CON         equ	29	;# 
   186     001E                     ADRESH          equ	30	;# 
   187     001F                     ADCON0          equ	31	;# 
   188     0081                     OPTION_REG      equ	129	;# 
   189     0085                     TRISA           equ	133	;# 
   190     0086                     TRISB           equ	134	;# 
   191     0087                     TRISC           equ	135	;# 
   192     0088                     TRISD           equ	136	;# 
   193     0089                     TRISE           equ	137	;# 
   194     008C                     PIE1            equ	140	;# 
   195     008D                     PIE2            equ	141	;# 
   196     008E                     PCON            equ	142	;# 
   197     0091                     SSPCON2         equ	145	;# 
   198     0092                     PR2             equ	146	;# 
   199     0093                     SSPADD          equ	147	;# 
   200     0094                     SSPSTAT         equ	148	;# 
   201     0098                     TXSTA           equ	152	;# 
   202     0099                     SPBRG           equ	153	;# 
   203     009C                     CMCON           equ	156	;# 
   204     009D                     CVRCON          equ	157	;# 
   205     009E                     ADRESL          equ	158	;# 
   206     009F                     ADCON1          equ	159	;# 
   207     010C                     EEDATA          equ	268	;# 
   208     010D                     EEADR           equ	269	;# 
   209     010E                     EEDATH          equ	270	;# 
   210     010F                     EEADRH          equ	271	;# 
   211     018C                     EECON1          equ	396	;# 
   212     018D                     EECON2          equ	397	;# 
   213     0000                     INDF            equ	0	;# 
   214     0001                     TMR0            equ	1	;# 
   215     0002                     PCL             equ	2	;# 
   216     0003                     STATUS          equ	3	;# 
   217     0004                     FSR             equ	4	;# 
   218     0005                     PORTA           equ	5	;# 
   219     0006                     PORTB           equ	6	;# 
   220     0007                     PORTC           equ	7	;# 
   221     0008                     PORTD           equ	8	;# 
   222     0009                     PORTE           equ	9	;# 
   223     000A                     PCLATH          equ	10	;# 
   224     000B                     INTCON          equ	11	;# 
   225     000C                     PIR1            equ	12	;# 
   226     000D                     PIR2            equ	13	;# 
   227     000E                     TMR1            equ	14	;# 
   228     000E                     TMR1L           equ	14	;# 
   229     000F                     TMR1H           equ	15	;# 
   230     0010                     T1CON           equ	16	;# 
   231     0011                     TMR2            equ	17	;# 
   232     0012                     T2CON           equ	18	;# 
   233     0013                     SSPBUF          equ	19	;# 
   234     0014                     SSPCON          equ	20	;# 
   235     0015                     CCPR1           equ	21	;# 
   236     0015                     CCPR1L          equ	21	;# 
   237     0016                     CCPR1H          equ	22	;# 
   238     0017                     CCP1CON         equ	23	;# 
   239     0018                     RCSTA           equ	24	;# 
   240     0019                     TXREG           equ	25	;# 
   241     001A                     RCREG           equ	26	;# 
   242     001B                     CCPR2           equ	27	;# 
   243     001B                     CCPR2L          equ	27	;# 
   244     001C                     CCPR2H          equ	28	;# 
   245     001D                     CCP2CON         equ	29	;# 
   246     001E                     ADRESH          equ	30	;# 
   247     001F                     ADCON0          equ	31	;# 
   248     0081                     OPTION_REG      equ	129	;# 
   249     0085                     TRISA           equ	133	;# 
   250     0086                     TRISB           equ	134	;# 
   251     0087                     TRISC           equ	135	;# 
   252     0088                     TRISD           equ	136	;# 
   253     0089                     TRISE           equ	137	;# 
   254     008C                     PIE1            equ	140	;# 
   255     008D                     PIE2            equ	141	;# 
   256     008E                     PCON            equ	142	;# 
   257     0091                     SSPCON2         equ	145	;# 
   258     0092                     PR2             equ	146	;# 
   259     0093                     SSPADD          equ	147	;# 
   260     0094                     SSPSTAT         equ	148	;# 
   261     0098                     TXSTA           equ	152	;# 
   262     0099                     SPBRG           equ	153	;# 
   263     009C                     CMCON           equ	156	;# 
   264     009D                     CVRCON          equ	157	;# 
   265     009E                     ADRESL          equ	158	;# 
   266     009F                     ADCON1          equ	159	;# 
   267     010C                     EEDATA          equ	268	;# 
   268     010D                     EEADR           equ	269	;# 
   269     010E                     EEDATH          equ	270	;# 
   270     010F                     EEADRH          equ	271	;# 
   271     018C                     EECON1          equ	396	;# 
   272     018D                     EECON2          equ	397	;# 
   273     0000                     INDF            equ	0	;# 
   274     0001                     TMR0            equ	1	;# 
   275     0002                     PCL             equ	2	;# 
   276     0003                     STATUS          equ	3	;# 
   277     0004                     FSR             equ	4	;# 
   278     0005                     PORTA           equ	5	;# 
   279     0006                     PORTB           equ	6	;# 
   280     0007                     PORTC           equ	7	;# 
   281     0008                     PORTD           equ	8	;# 
   282     0009                     PORTE           equ	9	;# 
   283     000A                     PCLATH          equ	10	;# 
   284     000B                     INTCON          equ	11	;# 
   285     000C                     PIR1            equ	12	;# 
   286     000D                     PIR2            equ	13	;# 
   287     000E                     TMR1            equ	14	;# 
   288     000E                     TMR1L           equ	14	;# 
   289     000F                     TMR1H           equ	15	;# 
   290     0010                     T1CON           equ	16	;# 
   291     0011                     TMR2            equ	17	;# 
   292     0012                     T2CON           equ	18	;# 
   293     0013                     SSPBUF          equ	19	;# 
   294     0014                     SSPCON          equ	20	;# 
   295     0015                     CCPR1           equ	21	;# 
   296     0015                     CCPR1L          equ	21	;# 
   297     0016                     CCPR1H          equ	22	;# 
   298     0017                     CCP1CON         equ	23	;# 
   299     0018                     RCSTA           equ	24	;# 
   300     0019                     TXREG           equ	25	;# 
   301     001A                     RCREG           equ	26	;# 
   302     001B                     CCPR2           equ	27	;# 
   303     001B                     CCPR2L          equ	27	;# 
   304     001C                     CCPR2H          equ	28	;# 
   305     001D                     CCP2CON         equ	29	;# 
   306     001E                     ADRESH          equ	30	;# 
   307     001F                     ADCON0          equ	31	;# 
   308     0081                     OPTION_REG      equ	129	;# 
   309     0085                     TRISA           equ	133	;# 
   310     0086                     TRISB           equ	134	;# 
   311     0087                     TRISC           equ	135	;# 
   312     0088                     TRISD           equ	136	;# 
   313     0089                     TRISE           equ	137	;# 
   314     008C                     PIE1            equ	140	;# 
   315     008D                     PIE2            equ	141	;# 
   316     008E                     PCON            equ	142	;# 
   317     0091                     SSPCON2         equ	145	;# 
   318     0092                     PR2             equ	146	;# 
   319     0093                     SSPADD          equ	147	;# 
   320     0094                     SSPSTAT         equ	148	;# 
   321     0098                     TXSTA           equ	152	;# 
   322     0099                     SPBRG           equ	153	;# 
   323     009C                     CMCON           equ	156	;# 
   324     009D                     CVRCON          equ	157	;# 
   325     009E                     ADRESL          equ	158	;# 
   326     009F                     ADCON1          equ	159	;# 
   327     010C                     EEDATA          equ	268	;# 
   328     010D                     EEADR           equ	269	;# 
   329     010E                     EEDATH          equ	270	;# 
   330     010F                     EEADRH          equ	271	;# 
   331     018C                     EECON1          equ	396	;# 
   332     018D                     EECON2          equ	397	;# 
   333     0000                     INDF            equ	0	;# 
   334     0001                     TMR0            equ	1	;# 
   335     0002                     PCL             equ	2	;# 
   336     0003                     STATUS          equ	3	;# 
   337     0004                     FSR             equ	4	;# 
   338     0005                     PORTA           equ	5	;# 
   339     0006                     PORTB           equ	6	;# 
   340     0007                     PORTC           equ	7	;# 
   341     0008                     PORTD           equ	8	;# 
   342     0009                     PORTE           equ	9	;# 
   343     000A                     PCLATH          equ	10	;# 
   344     000B                     INTCON          equ	11	;# 
   345     000C                     PIR1            equ	12	;# 
   346     000D                     PIR2            equ	13	;# 
   347     000E                     TMR1            equ	14	;# 
   348     000E                     TMR1L           equ	14	;# 
   349     000F                     TMR1H           equ	15	;# 
   350     0010                     T1CON           equ	16	;# 
   351     0011                     TMR2            equ	17	;# 
   352     0012                     T2CON           equ	18	;# 
   353     0013                     SSPBUF          equ	19	;# 
   354     0014                     SSPCON          equ	20	;# 
   355     0015                     CCPR1           equ	21	;# 
   356     0015                     CCPR1L          equ	21	;# 
   357     0016                     CCPR1H          equ	22	;# 
   358     0017                     CCP1CON         equ	23	;# 
   359     0018                     RCSTA           equ	24	;# 
   360     0019                     TXREG           equ	25	;# 
   361     001A                     RCREG           equ	26	;# 
   362     001B                     CCPR2           equ	27	;# 
   363     001B                     CCPR2L          equ	27	;# 
   364     001C                     CCPR2H          equ	28	;# 
   365     001D                     CCP2CON         equ	29	;# 
   366     001E                     ADRESH          equ	30	;# 
   367     001F                     ADCON0          equ	31	;# 
   368     0081                     OPTION_REG      equ	129	;# 
   369     0085                     TRISA           equ	133	;# 
   370     0086                     TRISB           equ	134	;# 
   371     0087                     TRISC           equ	135	;# 
   372     0088                     TRISD           equ	136	;# 
   373     0089                     TRISE           equ	137	;# 
   374     008C                     PIE1            equ	140	;# 
   375     008D                     PIE2            equ	141	;# 
   376     008E                     PCON            equ	142	;# 
   377     0091                     SSPCON2         equ	145	;# 
   378     0092                     PR2             equ	146	;# 
   379     0093                     SSPADD          equ	147	;# 
   380     0094                     SSPSTAT         equ	148	;# 
   381     0098                     TXSTA           equ	152	;# 
   382     0099                     SPBRG           equ	153	;# 
   383     009C                     CMCON           equ	156	;# 
   384     009D                     CVRCON          equ	157	;# 
   385     009E                     ADRESL          equ	158	;# 
   386     009F                     ADCON1          equ	159	;# 
   387     010C                     EEDATA          equ	268	;# 
   388     010D                     EEADR           equ	269	;# 
   389     010E                     EEDATH          equ	270	;# 
   390     010F                     EEADRH          equ	271	;# 
   391     018C                     EECON1          equ	396	;# 
   392     018D                     EECON2          equ	397	;# 
   393     0000                     INDF            equ	0	;# 
   394     0001                     TMR0            equ	1	;# 
   395     0002                     PCL             equ	2	;# 
   396     0003                     STATUS          equ	3	;# 
   397     0004                     FSR             equ	4	;# 
   398     0005                     PORTA           equ	5	;# 
   399     0006                     PORTB           equ	6	;# 
   400     0007                     PORTC           equ	7	;# 
   401     0008                     PORTD           equ	8	;# 
   402     0009                     PORTE           equ	9	;# 
   403     000A                     PCLATH          equ	10	;# 
   404     000B                     INTCON          equ	11	;# 
   405     000C                     PIR1            equ	12	;# 
   406     000D                     PIR2            equ	13	;# 
   407     000E                     TMR1            equ	14	;# 
   408     000E                     TMR1L           equ	14	;# 
   409     000F                     TMR1H           equ	15	;# 
   410     0010                     T1CON           equ	16	;# 
   411     0011                     TMR2            equ	17	;# 
   412     0012                     T2CON           equ	18	;# 
   413     0013                     SSPBUF          equ	19	;# 
   414     0014                     SSPCON          equ	20	;# 
   415     0015                     CCPR1           equ	21	;# 
   416     0015                     CCPR1L          equ	21	;# 
   417     0016                     CCPR1H          equ	22	;# 
   418     0017                     CCP1CON         equ	23	;# 
   419     0018                     RCSTA           equ	24	;# 
   420     0019                     TXREG           equ	25	;# 
   421     001A                     RCREG           equ	26	;# 
   422     001B                     CCPR2           equ	27	;# 
   423     001B                     CCPR2L          equ	27	;# 
   424     001C                     CCPR2H          equ	28	;# 
   425     001D                     CCP2CON         equ	29	;# 
   426     001E                     ADRESH          equ	30	;# 
   427     001F                     ADCON0          equ	31	;# 
   428     0081                     OPTION_REG      equ	129	;# 
   429     0085                     TRISA           equ	133	;# 
   430     0086                     TRISB           equ	134	;# 
   431     0087                     TRISC           equ	135	;# 
   432     0088                     TRISD           equ	136	;# 
   433     0089                     TRISE           equ	137	;# 
   434     008C                     PIE1            equ	140	;# 
   435     008D                     PIE2            equ	141	;# 
   436     008E                     PCON            equ	142	;# 
   437     0091                     SSPCON2         equ	145	;# 
   438     0092                     PR2             equ	146	;# 
   439     0093                     SSPADD          equ	147	;# 
   440     0094                     SSPSTAT         equ	148	;# 
   441     0098                     TXSTA           equ	152	;# 
   442     0099                     SPBRG           equ	153	;# 
   443     009C                     CMCON           equ	156	;# 
   444     009D                     CVRCON          equ	157	;# 
   445     009E                     ADRESL          equ	158	;# 
   446     009F                     ADCON1          equ	159	;# 
   447     010C                     EEDATA          equ	268	;# 
   448     010D                     EEADR           equ	269	;# 
   449     010E                     EEDATH          equ	270	;# 
   450     010F                     EEADRH          equ	271	;# 
   451     018C                     EECON1          equ	396	;# 
   452     018D                     EECON2          equ	397	;# 
   453     0000                     INDF            equ	0	;# 
   454     0001                     TMR0            equ	1	;# 
   455     0002                     PCL             equ	2	;# 
   456     0003                     STATUS          equ	3	;# 
   457     0004                     FSR             equ	4	;# 
   458     0005                     PORTA           equ	5	;# 
   459     0006                     PORTB           equ	6	;# 
   460     0007                     PORTC           equ	7	;# 
   461     0008                     PORTD           equ	8	;# 
   462     0009                     PORTE           equ	9	;# 
   463     000A                     PCLATH          equ	10	;# 
   464     000B                     INTCON          equ	11	;# 
   465     000C                     PIR1            equ	12	;# 
   466     000D                     PIR2            equ	13	;# 
   467     000E                     TMR1            equ	14	;# 
   468     000E                     TMR1L           equ	14	;# 
   469     000F                     TMR1H           equ	15	;# 
   470     0010                     T1CON           equ	16	;# 
   471     0011                     TMR2            equ	17	;# 
   472     0012                     T2CON           equ	18	;# 
   473     0013                     SSPBUF          equ	19	;# 
   474     0014                     SSPCON          equ	20	;# 
   475     0015                     CCPR1           equ	21	;# 
   476     0015                     CCPR1L          equ	21	;# 
   477     0016                     CCPR1H          equ	22	;# 
   478     0017                     CCP1CON         equ	23	;# 
   479     0018                     RCSTA           equ	24	;# 
   480     0019                     TXREG           equ	25	;# 
   481     001A                     RCREG           equ	26	;# 
   482     001B                     CCPR2           equ	27	;# 
   483     001B                     CCPR2L          equ	27	;# 
   484     001C                     CCPR2H          equ	28	;# 
   485     001D                     CCP2CON         equ	29	;# 
   486     001E                     ADRESH          equ	30	;# 
   487     001F                     ADCON0          equ	31	;# 
   488     0081                     OPTION_REG      equ	129	;# 
   489     0085                     TRISA           equ	133	;# 
   490     0086                     TRISB           equ	134	;# 
   491     0087                     TRISC           equ	135	;# 
   492     0088                     TRISD           equ	136	;# 
   493     0089                     TRISE           equ	137	;# 
   494     008C                     PIE1            equ	140	;# 
   495     008D                     PIE2            equ	141	;# 
   496     008E                     PCON            equ	142	;# 
   497     0091                     SSPCON2         equ	145	;# 
   498     0092                     PR2             equ	146	;# 
   499     0093                     SSPADD          equ	147	;# 
   500     0094                     SSPSTAT         equ	148	;# 
   501     0098                     TXSTA           equ	152	;# 
   502     0099                     SPBRG           equ	153	;# 
   503     009C                     CMCON           equ	156	;# 
   504     009D                     CVRCON          equ	157	;# 
   505     009E                     ADRESL          equ	158	;# 
   506     009F                     ADCON1          equ	159	;# 
   507     010C                     EEDATA          equ	268	;# 
   508     010D                     EEADR           equ	269	;# 
   509     010E                     EEDATH          equ	270	;# 
   510     010F                     EEADRH          equ	271	;# 
   511     018C                     EECON1          equ	396	;# 
   512     018D                     EECON2          equ	397	;# 
   513                           
   514                           	psect	idataBANK0
   515     0803                     __pidataBANK0:
   516                           
   517                           ;initializer for read_digital_keypad@once
   518     0803  3401               	retlw	1
   519     0804  3400               	retlw	0
   520                           
   521                           	psect	idataBANK1
   522     07DE                     __pidataBANK1:
   523                           
   524                           ;initializer for _washing_prog
   525     07DE  3474               	retlw	low (STR_1| (0+32768))
   526     07DF  3491               	retlw	high (STR_1| (0+32768))
   527     07E0  347A               	retlw	low (STR_2| (0+32768))
   528     07E1  3491               	retlw	high (STR_2| (0+32768))
   529     07E2  340B               	retlw	low (STR_3| (0+32768))
   530     07E3  3491               	retlw	high (STR_3| (0+32768))
   531     07E4  345B               	retlw	low (STR_4| (0+32768))
   532     07E5  3491               	retlw	high (STR_4| (0+32768))
   533     07E6  34F5               	retlw	low (STR_5| (0+32768))
   534     07E7  3490               	retlw	high (STR_5| (0+32768))
   535     07E8  3400               	retlw	low (STR_6| (0+32768))
   536     07E9  3491               	retlw	high (STR_6| (0+32768))
   537     07EA  3433               	retlw	low (STR_7| (0+32768))
   538     07EB  3491               	retlw	high (STR_7| (0+32768))
   539     07EC  3415               	retlw	low (STR_8| (0+32768))
   540     07ED  3491               	retlw	high (STR_8| (0+32768))
   541     07EE  3429               	retlw	low (STR_9| (0+32768))
   542     07EF  3491               	retlw	high (STR_9| (0+32768))
   543     07F0  343C               	retlw	low (STR_10| (0+32768))
   544     07F1  3491               	retlw	high (STR_10| (0+32768))
   545     07F2  341F               	retlw	low (STR_11| (0+32768))
   546     07F3  3491               	retlw	high (STR_11| (0+32768))
   547     07F4  34EA               	retlw	low (STR_12| (0+32768))
   548     07F5  3490               	retlw	high (STR_12| (0+32768))
   549                           
   550                           ;initializer for _water_level_arr
   551     07F6  348A               	retlw	low (STR_13| (0+32768))
   552     07F7  3491               	retlw	high (STR_13| (0+32768))
   553     07F8  348F               	retlw	low (STR_14| (0+32768))
   554     07F9  3491               	retlw	high (STR_14| (0+32768))
   555     07FA  3454               	retlw	low (STR_15| (0+32768))
   556     07FB  3491               	retlw	high (STR_15| (0+32768))
   557     07FC  3485               	retlw	low (STR_16| (0+32768))
   558     07FD  3491               	retlw	high (STR_16| (0+32768))
   559     07FE  3493               	retlw	low (STR_17| (0+32768))
   560     07FF  3491               	retlw	high (STR_17| (0+32768))
   561                           
   562                           	psect	nvBANK0
   563     006B                     __pnvBANK0:
   564     006B                     _reset_mode:
   565     006B                     	ds	1
   566     006C                     _operation_mode:
   567     006C                     	ds	1
   568     0006                     _PORTB          set	6
   569     0007                     _PORTCbits      set	7
   570     0008                     _PORTD          set	8
   571     0091                     _T2CKPS1        set	145
   572     0090                     _T2CKPS0        set	144
   573     0030                     _RB0            set	48
   574     003A                     _RC2            set	58
   575     0092                     _TMR2ON         set	146
   576     005F                     _GIE            set	95
   577     005E                     _PEIE           set	94
   578     0061                     _TMR2IF         set	97
   579     0049                     _RE1            set	73
   580     004A                     _RE2            set	74
   581     0092                     _PR2            set	146
   582     0086                     _TRISB          set	134
   583     0088                     _TRISD          set	136
   584     0461                     _TMR2IE         set	1121
   585     0439                     _TRISC1         set	1081
   586     043A                     _TRISC2         set	1082
   587     0449                     _TRISE1         set	1097
   588     044A                     _TRISE2         set	1098
   589                           
   590                           	psect	strings
   591     1197                     __pstrings:
   592     1197                     stringtab:
   593     1197                     __stringtab:
   594                           
   595                           ;	String table - string pointers are 2 bytes each
   596     1197  1BFF               	btfsc	btemp+1,7
   597     1198  29A1               	ljmp	stringcode
   598     1199  1383               	bcf	3,7
   599     119A  187F               	btfsc	btemp+1,0
   600     119B  1783               	bsf	3,7
   601     119C  0800               	movf	0,w
   602     119D  0A84               	incf	4,f
   603     119E  1903               	skipnz
   604     119F  0AFF               	incf	btemp+1,f
   605     11A0  0008               	return
   606     11A1                     stringcode:
   607     11A1  087F               	movf	btemp+1,w
   608     11A2  397F               	andlw	127
   609     11A3  008A               	movwf	10
   610     11A4  0804               	movf	4,w
   611     11A5  0A84               	incf	4,f
   612     11A6  1903               	skipnz
   613     11A7  0AFF               	incf	btemp+1,f
   614     11A8  0082               	movwf	2
   615     11A9                     __stringbase:
   616     11A9                     __end_of__stringtab:
   617                           
   618                           	psect	stringtext
   619     1000                     __pstringtext:
   620     1000                     STR_25:
   621     1000  3420               	retlw	32	;' '
   622     1001  3457               	retlw	87	;'W'
   623     1002  3461               	retlw	97	;'a'
   624     1003  3473               	retlw	115	;'s'
   625     1004  3468               	retlw	104	;'h'
   626     1005  3469               	retlw	105	;'i'
   627     1006  346E               	retlw	110	;'n'
   628     1007  3467               	retlw	103	;'g'
   629     1008  3420               	retlw	32	;' '
   630     1009  344D               	retlw	77	;'M'
   631     100A  3461               	retlw	97	;'a'
   632     100B  3463               	retlw	99	;'c'
   633     100C  3468               	retlw	104	;'h'
   634     100D  3469               	retlw	105	;'i'
   635     100E  346E               	retlw	110	;'n'
   636     100F  3465               	retlw	101	;'e'
   637     1010  3420               	retlw	32	;' '
   638     1011  3400               	retlw	0
   639     1012                     STR_19:
   640     1012  3420               	retlw	32	;' '
   641     1013  3420               	retlw	32	;' '
   642     1014  3420               	retlw	32	;' '
   643     1015  3420               	retlw	32	;' '
   644     1016  3450               	retlw	80	;'P'
   645     1017  346F               	retlw	111	;'o'
   646     1018  3477               	retlw	119	;'w'
   647     1019  3465               	retlw	101	;'e'
   648     101A  3472               	retlw	114	;'r'
   649     101B  3420               	retlw	32	;' '
   650     101C  344F               	retlw	79	;'O'
   651     101D  344E               	retlw	78	;'N'
   652     101E  3420               	retlw	32	;' '
   653     101F  3420               	retlw	32	;' '
   654     1020  3420               	retlw	32	;' '
   655     1021  3420               	retlw	32	;' '
   656     1022  3400               	retlw	0
   657     1023                     STR_24:
   658     1023  3420               	retlw	32	;' '
   659     1024  3420               	retlw	32	;' '
   660     1025  3450               	retlw	80	;'P'
   661     1026  346F               	retlw	111	;'o'
   662     1027  3477               	retlw	119	;'w'
   663     1028  3465               	retlw	101	;'e'
   664     1029  3472               	retlw	114	;'r'
   665     102A  3469               	retlw	105	;'i'
   666     102B  346E               	retlw	110	;'n'
   667     102C  3467               	retlw	103	;'g'
   668     102D  3420               	retlw	32	;' '
   669     102E  344F               	retlw	79	;'O'
   670     102F  344E               	retlw	78	;'N'
   671     1030  3420               	retlw	32	;' '
   672     1031  3420               	retlw	32	;' '
   673     1032  3420               	retlw	32	;' '
   674     1033  3400               	retlw	0
   675     1034                     STR_32:
   676     1034  3435               	retlw	53	;'5'
   677     1035  342D               	retlw	45	;'-'
   678     1036  3453               	retlw	83	;'S'
   679     1037  3454               	retlw	84	;'T'
   680     1038  3441               	retlw	65	;'A'
   681     1039  3452               	retlw	82	;'R'
   682     103A  3454               	retlw	84	;'T'
   683     103B  3420               	retlw	32	;' '
   684     103C  3420               	retlw	32	;' '
   685     103D  3436               	retlw	54	;'6'
   686     103E  342D               	retlw	45	;'-'
   687     103F  3450               	retlw	80	;'P'
   688     1040  3441               	retlw	65	;'A'
   689     1041  3455               	retlw	85	;'U'
   690     1042  3453               	retlw	83	;'S'
   691     1043  3445               	retlw	69	;'E'
   692     1044  3400               	retlw	0
   693     1045                     STR_20:
   694     1045  3420               	retlw	32	;' '
   695     1046  3457               	retlw	87	;'W'
   696     1047  3461               	retlw	97	;'a'
   697     1048  3473               	retlw	115	;'s'
   698     1049  3468               	retlw	104	;'h'
   699     104A  3469               	retlw	105	;'i'
   700     104B  346E               	retlw	110	;'n'
   701     104C  3467               	retlw	103	;'g'
   702     104D  3420               	retlw	32	;' '
   703     104E  344D               	retlw	77	;'M'
   704     104F  3461               	retlw	97	;'a'
   705     1050  3463               	retlw	99	;'c'
   706     1051  3468               	retlw	104	;'h'
   707     1052  3469               	retlw	105	;'i'
   708     1053  346E               	retlw	110	;'n'
   709     1054  3465               	retlw	101	;'e'
   710     1055  3400               	retlw	0
   711     1056                     STR_18:
   712     1056  3420               	retlw	32	;' '
   713     1057  3450               	retlw	80	;'P'
   714     1058  3472               	retlw	114	;'r'
   715     1059  3465               	retlw	101	;'e'
   716     105A  3473               	retlw	115	;'s'
   717     105B  3473               	retlw	115	;'s'
   718     105C  3420               	retlw	32	;' '
   719     105D  3453               	retlw	83	;'S'
   720     105E  3457               	retlw	87	;'W'
   721     105F  3435               	retlw	53	;'5'
   722     1060  3420               	retlw	32	;' '
   723     1061  3454               	retlw	84	;'T'
   724     1062  346F               	retlw	111	;'o'
   725     1063  3420               	retlw	32	;' '
   726     1064  3420               	retlw	32	;' '
   727     1065  3400               	retlw	0
   728     1066                     STR_46:
   729     1066  3450               	retlw	80	;'P'
   730     1067  3472               	retlw	114	;'r'
   731     1068  346F               	retlw	111	;'o'
   732     1069  3467               	retlw	103	;'g'
   733     106A  342E               	retlw	46	;'.'
   734     106B  3420               	retlw	32	;' '
   735     106C  3443               	retlw	67	;'C'
   736     106D  346F               	retlw	111	;'o'
   737     106E  346D               	retlw	109	;'m'
   738     106F  3470               	retlw	112	;'p'
   739     1070  346C               	retlw	108	;'l'
   740     1071  3465               	retlw	101	;'e'
   741     1072  3474               	retlw	116	;'t'
   742     1073  3465               	retlw	101	;'e'
   743     1074  3464               	retlw	100	;'d'
   744     1075  3400               	retlw	0
   745     1076                     STR_26:
   746     1076  3457               	retlw	87	;'W'
   747     1077  3461               	retlw	97	;'a'
   748     1078  3473               	retlw	115	;'s'
   749     1079  3468               	retlw	104	;'h'
   750     107A  3469               	retlw	105	;'i'
   751     107B  346E               	retlw	110	;'n'
   752     107C  3467               	retlw	103	;'g'
   753     107D  3420               	retlw	32	;' '
   754     107E  3450               	retlw	80	;'P'
   755     107F  3472               	retlw	114	;'r'
   756     1080  346F               	retlw	111	;'o'
   757     1081  3467               	retlw	103	;'g'
   758     1082  3472               	retlw	114	;'r'
   759     1083  3461               	retlw	97	;'a'
   760     1084  346D               	retlw	109	;'m'
   761     1085  3400               	retlw	0
   762     1086                     STR_47:
   763     1086  3452               	retlw	82	;'R'
   764     1087  3465               	retlw	101	;'e'
   765     1088  346D               	retlw	109	;'m'
   766     1089  346F               	retlw	111	;'o'
   767     108A  3476               	retlw	118	;'v'
   768     108B  3465               	retlw	101	;'e'
   769     108C  3420               	retlw	32	;' '
   770     108D  3443               	retlw	67	;'C'
   771     108E  346C               	retlw	108	;'l'
   772     108F  346F               	retlw	111	;'o'
   773     1090  3474               	retlw	116	;'t'
   774     1091  3468               	retlw	104	;'h'
   775     1092  3473               	retlw	115	;'s'
   776     1093  3400               	retlw	0
   777     1094                     STR_22:
   778     1094  3420               	retlw	32	;' '
   779     1095  3453               	retlw	83	;'S'
   780     1096  3457               	retlw	87	;'W'
   781     1097  3435               	retlw	53	;'5'
   782     1098  343A               	retlw	58	;':'
   783     1099  3420               	retlw	32	;' '
   784     109A  3453               	retlw	83	;'S'
   785     109B  3454               	retlw	84	;'T'
   786     109C  3441               	retlw	65	;'A'
   787     109D  3452               	retlw	82	;'R'
   788     109E  3454               	retlw	84	;'T'
   789     109F  3420               	retlw	32	;' '
   790     10A0  3400               	retlw	0
   791     10A1                     STR_29:
   792     10A1  3450               	retlw	80	;'P'
   793     10A2  346C               	retlw	108	;'l'
   794     10A3  3465               	retlw	101	;'e'
   795     10A4  3461               	retlw	97	;'a'
   796     10A5  3473               	retlw	115	;'s'
   797     10A6  3465               	retlw	101	;'e'
   798     10A7  3420               	retlw	32	;' '
   799     10A8  3443               	retlw	67	;'C'
   800     10A9  346C               	retlw	108	;'l'
   801     10AA  346F               	retlw	111	;'o'
   802     10AB  3473               	retlw	115	;'s'
   803     10AC  3465               	retlw	101	;'e'
   804     10AD  3400               	retlw	0
   805     10AE                     STR_21:
   806     10AE  3450               	retlw	80	;'P'
   807     10AF  3472               	retlw	114	;'r'
   808     10B0  3465               	retlw	101	;'e'
   809     10B1  3473               	retlw	115	;'s'
   810     10B2  3473               	retlw	115	;'s'
   811     10B3  3420               	retlw	32	;' '
   812     10B4  3453               	retlw	83	;'S'
   813     10B5  3477               	retlw	119	;'w'
   814     10B6  3469               	retlw	105	;'i'
   815     10B7  3474               	retlw	116	;'t'
   816     10B8  3463               	retlw	99	;'c'
   817     10B9  3468               	retlw	104	;'h'
   818     10BA  3400               	retlw	0
   819     10BB                     STR_23:
   820     10BB  3420               	retlw	32	;' '
   821     10BC  3453               	retlw	83	;'S'
   822     10BD  3457               	retlw	87	;'W'
   823     10BE  3436               	retlw	54	;'6'
   824     10BF  343A               	retlw	58	;':'
   825     10C0  3420               	retlw	32	;' '
   826     10C1  3453               	retlw	83	;'S'
   827     10C2  3454               	retlw	84	;'T'
   828     10C3  344F               	retlw	79	;'O'
   829     10C4  3450               	retlw	80	;'P'
   830     10C5  3420               	retlw	32	;' '
   831     10C6  3400               	retlw	0
   832     10C7                     STR_28:
   833     10C7  3444               	retlw	68	;'D'
   834     10C8  344F               	retlw	79	;'O'
   835     10C9  344F               	retlw	79	;'O'
   836     10CA  3452               	retlw	82	;'R'
   837     10CB  3420               	retlw	32	;' '
   838     10CC  343A               	retlw	58	;':'
   839     10CD  3420               	retlw	32	;' '
   840     10CE  344F               	retlw	79	;'O'
   841     10CF  3450               	retlw	80	;'P'
   842     10D0  3445               	retlw	69	;'E'
   843     10D1  344E               	retlw	78	;'N'
   844     10D2  3400               	retlw	0
   845     10D3                     STR_27:
   846     10D3  3457               	retlw	87	;'W'
   847     10D4  3461               	retlw	97	;'a'
   848     10D5  3474               	retlw	116	;'t'
   849     10D6  3465               	retlw	101	;'e'
   850     10D7  3472               	retlw	114	;'r'
   851     10D8  3420               	retlw	32	;' '
   852     10D9  344C               	retlw	76	;'L'
   853     10DA  3465               	retlw	101	;'e'
   854     10DB  3476               	retlw	118	;'v'
   855     10DC  3465               	retlw	101	;'e'
   856     10DD  346C               	retlw	108	;'l'
   857     10DE  3400               	retlw	0
   858     10DF                     STR_30:
   859     10DF  3446               	retlw	70	;'F'
   860     10E0  3475               	retlw	117	;'u'
   861     10E1  346E               	retlw	110	;'n'
   862     10E2  3463               	retlw	99	;'c'
   863     10E3  3474               	retlw	116	;'t'
   864     10E4  3469               	retlw	105	;'i'
   865     10E5  346F               	retlw	111	;'o'
   866     10E6  346E               	retlw	110	;'n'
   867     10E7  3420               	retlw	32	;' '
   868     10E8  342D               	retlw	45	;'-'
   869     10E9  3400               	retlw	0
   870     10EA                     STR_12:
   871     10EA  3441               	retlw	65	;'A'
   872     10EB  3471               	retlw	113	;'q'
   873     10EC  3475               	retlw	117	;'u'
   874     10ED  3461               	retlw	97	;'a'
   875     10EE  3420               	retlw	32	;' '
   876     10EF  3473               	retlw	115	;'s'
   877     10F0  3474               	retlw	116	;'t'
   878     10F1  346F               	retlw	111	;'o'
   879     10F2  3472               	retlw	114	;'r'
   880     10F3  3465               	retlw	101	;'e'
   881     10F4  3400               	retlw	0
   882     10F5                     STR_5:
   883     10F5  3453               	retlw	83	;'S'
   884     10F6  3474               	retlw	116	;'t'
   885     10F7  3461               	retlw	97	;'a'
   886     10F8  3469               	retlw	105	;'i'
   887     10F9  346E               	retlw	110	;'n'
   888     10FA  3420               	retlw	32	;' '
   889     10FB  3457               	retlw	87	;'W'
   890     10FC  3461               	retlw	97	;'a'
   891     10FD  3473               	retlw	115	;'s'
   892     10FE  3468               	retlw	104	;'h'
   893     10FF  3400               	retlw	0
   894     1100                     STR_6:
   895     1100  3445               	retlw	69	;'E'
   896     1101  3463               	retlw	99	;'c'
   897     1102  346F               	retlw	111	;'o'
   898     1103  3443               	retlw	67	;'C'
   899     1104  346F               	retlw	111	;'o'
   900     1105  3474               	retlw	116	;'t'
   901     1106  3474               	retlw	116	;'t'
   902     1107  346F               	retlw	111	;'o'
   903     1108  346E               	retlw	110	;'n'
   904     1109  3473               	retlw	115	;'s'
   905     110A  3400               	retlw	0
   906     110B                     STR_3:
   907     110B  3444               	retlw	68	;'D'
   908     110C  3465               	retlw	101	;'e'
   909     110D  346C               	retlw	108	;'l'
   910     110E  3469               	retlw	105	;'i'
   911     110F  3463               	retlw	99	;'c'
   912     1110  3461               	retlw	97	;'a'
   913     1111  3474               	retlw	116	;'t'
   914     1112  3465               	retlw	101	;'e'
   915     1113  3473               	retlw	115	;'s'
   916     1114  3400               	retlw	0
   917     1115                     STR_8:
   918     1115  3442               	retlw	66	;'B'
   919     1116  3465               	retlw	101	;'e'
   920     1117  3464               	retlw	100	;'d'
   921     1118  3453               	retlw	83	;'S'
   922     1119  3468               	retlw	104	;'h'
   923     111A  3465               	retlw	101	;'e'
   924     111B  3465               	retlw	101	;'e'
   925     111C  3474               	retlw	116	;'t'
   926     111D  3473               	retlw	115	;'s'
   927     111E  3400               	retlw	0
   928     111F                     STR_11:
   929     111F  3457               	retlw	87	;'W'
   930     1120  3461               	retlw	97	;'a'
   931     1121  3473               	retlw	115	;'s'
   932     1122  3468               	retlw	104	;'h'
   933     1123  3420               	retlw	32	;' '
   934     1124  344F               	retlw	79	;'O'
   935     1125  346E               	retlw	110	;'n'
   936     1126  346C               	retlw	108	;'l'
   937     1127  3479               	retlw	121	;'y'
   938     1128  3400               	retlw	0
   939     1129                     STR_9:
   940     1129  3452               	retlw	82	;'R'
   941     112A  3469               	retlw	105	;'i'
   942     112B  346E               	retlw	110	;'n'
   943     112C  3473               	retlw	115	;'s'
   944     112D  3465               	retlw	101	;'e'
   945     112E  342B               	retlw	43	;'+'
   946     112F  3444               	retlw	68	;'D'
   947     1130  3472               	retlw	114	;'r'
   948     1131  3479               	retlw	121	;'y'
   949     1132  3400               	retlw	0
   950     1133                     STR_7:
   951     1133  3457               	retlw	87	;'W'
   952     1134  346F               	retlw	111	;'o'
   953     1135  346F               	retlw	111	;'o'
   954     1136  346C               	retlw	108	;'l'
   955     1137  346C               	retlw	108	;'l'
   956     1138  3465               	retlw	101	;'e'
   957     1139  346E               	retlw	110	;'n'
   958     113A  3473               	retlw	115	;'s'
   959     113B  3400               	retlw	0
   960     113C                     STR_10:
   961     113C  3444               	retlw	68	;'D'
   962     113D  3472               	retlw	114	;'r'
   963     113E  3479               	retlw	121	;'y'
   964     113F  3420               	retlw	32	;' '
   965     1140  346F               	retlw	111	;'o'
   966     1141  346E               	retlw	110	;'n'
   967     1142  346C               	retlw	108	;'l'
   968     1143  3479               	retlw	121	;'y'
   969     1144  3400               	retlw	0
   970     1145                     STR_35:
   971     1145  3428               	retlw	40	;'('
   972     1146  344D               	retlw	77	;'M'
   973     1147  344D               	retlw	77	;'M'
   974     1148  343A               	retlw	58	;':'
   975     1149  3453               	retlw	83	;'S'
   976     114A  3453               	retlw	83	;'S'
   977     114B  3429               	retlw	41	;')'
   978     114C  3400               	retlw	0
   979     114D                     STR_33:
   980     114D  3450               	retlw	80	;'P'
   981     114E  3472               	retlw	114	;'r'
   982     114F  346F               	retlw	111	;'o'
   983     1150  3467               	retlw	103	;'g'
   984     1151  343A               	retlw	58	;':'
   985     1152  3420               	retlw	32	;' '
   986     1153  3400               	retlw	0
   987     1154                     STR_15:
   988     1154  344D               	retlw	77	;'M'
   989     1155  3465               	retlw	101	;'e'
   990     1156  3464               	retlw	100	;'d'
   991     1157  3469               	retlw	105	;'i'
   992     1158  3475               	retlw	117	;'u'
   993     1159  346D               	retlw	109	;'m'
   994     115A  3400               	retlw	0
   995     115B                     STR_4:
   996     115B  3457               	retlw	87	;'W'
   997     115C  3468               	retlw	104	;'h'
   998     115D  3469               	retlw	105	;'i'
   999     115E  3474               	retlw	116	;'t'
  1000     115F  3465               	retlw	101	;'e'
  1001     1160  3473               	retlw	115	;'s'
  1002     1161  3400               	retlw	0
  1003     1162                     STR_41:
  1004     1162  3453               	retlw	83	;'S'
  1005     1163  3470               	retlw	112	;'p'
  1006     1164  3469               	retlw	105	;'i'
  1007     1165  346E               	retlw	110	;'n'
  1008     1166  3420               	retlw	32	;' '
  1009     1167  3400               	retlw	0
  1010     1168                     STR_34:
  1011     1168  3454               	retlw	84	;'T'
  1012     1169  3469               	retlw	105	;'i'
  1013     116A  346D               	retlw	109	;'m'
  1014     116B  3465               	retlw	101	;'e'
  1015     116C  343A               	retlw	58	;':'
  1016     116D  3400               	retlw	0
  1017     116E                     STR_40:
  1018     116E  3452               	retlw	82	;'R'
  1019     116F  3469               	retlw	105	;'i'
  1020     1170  346E               	retlw	110	;'n'
  1021     1171  3473               	retlw	115	;'s'
  1022     1172  3465               	retlw	101	;'e'
  1023     1173  3400               	retlw	0
  1024     1174                     STR_1:
  1025     1174  3444               	retlw	68	;'D'
  1026     1175  3461               	retlw	97	;'a'
  1027     1176  3469               	retlw	105	;'i'
  1028     1177  346C               	retlw	108	;'l'
  1029     1178  3479               	retlw	121	;'y'
  1030     1179  3400               	retlw	0
  1031     117A                     STR_2:
  1032     117A  3448               	retlw	72	;'H'
  1033     117B  3465               	retlw	101	;'e'
  1034     117C  3461               	retlw	97	;'a'
  1035     117D  3476               	retlw	118	;'v'
  1036     117E  3479               	retlw	121	;'y'
  1037     117F  3400               	retlw	0
  1038     1180                     STR_31:
  1039     1180  3454               	retlw	84	;'T'
  1040     1181  3449               	retlw	73	;'I'
  1041     1182  344D               	retlw	77	;'M'
  1042     1183  3445               	retlw	69	;'E'
  1043     1184  3400               	retlw	0
  1044     1185                     STR_16:
  1045     1185  3448               	retlw	72	;'H'
  1046     1186  3469               	retlw	105	;'i'
  1047     1187  3467               	retlw	103	;'g'
  1048     1188  3468               	retlw	104	;'h'
  1049     1189  3400               	retlw	0
  1050     118A                     STR_13:
  1051     118A  3441               	retlw	65	;'A'
  1052     118B  3475               	retlw	117	;'u'
  1053     118C  3474               	retlw	116	;'t'
  1054     118D  346F               	retlw	111	;'o'
  1055     118E  3400               	retlw	0
  1056     118F                     STR_14:
  1057     118F  344C               	retlw	76	;'L'
  1058     1190  346F               	retlw	111	;'o'
  1059     1191  3477               	retlw	119	;'w'
  1060     1192  3400               	retlw	0
  1061     1193                     STR_17:
  1062     1193  344D               	retlw	77	;'M'
  1063     1194  3461               	retlw	97	;'a'
  1064     1195  3478               	retlw	120	;'x'
  1065     1196  3400               	retlw	0
  1066     10FB                     STR_39          equ	STR_5+6
  1067     10FB                     STR_45          equ	STR_5+6
  1068     116E                     STR_42          equ	STR_40
  1069     116E                     STR_44          equ	STR_40
  1070     1034                     STR_38          equ	STR_32
  1071     1180                     STR_37          equ	STR_31
  1072     10DF                     STR_36          equ	STR_30
  1073     1162                     STR_43          equ	STR_41
  1074                           
  1075                           	psect	cinit
  1076     000F                     start_initialization:	
  1077                           ; #config settings
  1078                           
  1079     000F                     __initialization:
  1080                           
  1081                           ; Initialize objects allocated to BANK1
  1082     000F  1383               	bcf	3,7	;select IRP bank0
  1083     0010  30C2               	movlw	low (__pdataBANK1+34)
  1084     0011  00FD               	movwf	btemp+-1
  1085     0012  3007               	movlw	high __pidataBANK1
  1086     0013  00FE               	movwf	btemp
  1087     0014  30DE               	movlw	low __pidataBANK1
  1088     0015  00FF               	movwf	btemp+1
  1089     0016  30A0               	movlw	low __pdataBANK1
  1090     0017  0084               	movwf	4
  1091     0018  160A  118A  24FE  120A  118A  	fcall	init_ram0
  1092                           
  1093                           ; Initialize objects allocated to BANK0
  1094     001D  120A  158A  2003  120A  118A  	fcall	__pidataBANK0	;fetch initializer
  1095     0022  00ED               	movwf	__pdataBANK0& (0+127)
  1096     0023  120A  158A  2004  120A  118A  	fcall	__pidataBANK0+1	;fetch initializer
  1097     0028  00EE               	movwf	(__pdataBANK0+1)& (0+127)
  1098                           
  1099                           ; Clear objects allocated to BANK1
  1100     0029  1683               	bsf	3,5	;RP0=1, select bank1
  1101     002A  1303               	bcf	3,6	;RP1=0, select bank1
  1102     002B  01C7               	clrf	__pbssBANK1& (0+127)
  1103     002C  01C8               	clrf	(__pbssBANK1+1)& (0+127)
  1104     002D  01C9               	clrf	(__pbssBANK1+2)& (0+127)
  1105     002E  01CA               	clrf	(__pbssBANK1+3)& (0+127)
  1106                           
  1107                           ; Clear objects allocated to BANK0
  1108     002F  1283               	bcf	3,5	;RP0=0, select bank0
  1109     0030  1303               	bcf	3,6	;RP1=0, select bank0
  1110     0031  01E0               	clrf	__pbssBANK0& (0+127)
  1111     0032  01E1               	clrf	(__pbssBANK0+1)& (0+127)
  1112     0033  01E2               	clrf	(__pbssBANK0+2)& (0+127)
  1113     0034  01E3               	clrf	(__pbssBANK0+3)& (0+127)
  1114     0035  01E4               	clrf	(__pbssBANK0+4)& (0+127)
  1115     0036  01E5               	clrf	(__pbssBANK0+5)& (0+127)
  1116     0037  01E6               	clrf	(__pbssBANK0+6)& (0+127)
  1117     0038  01E7               	clrf	(__pbssBANK0+7)& (0+127)
  1118     0039  01E8               	clrf	(__pbssBANK0+8)& (0+127)
  1119     003A  01E9               	clrf	(__pbssBANK0+9)& (0+127)
  1120     003B  01EA               	clrf	(__pbssBANK0+10)& (0+127)
  1121                           
  1122                           ; Clear objects allocated to COMMON
  1123     003C  01F9               	clrf	__pbssCOMMON& (0+127)
  1124     003D  01FA               	clrf	(__pbssCOMMON+1)& (0+127)
  1125     003E  01FB               	clrf	(__pbssCOMMON+2)& (0+127)
  1126     003F                     end_of_initialization:	
  1127                           ;End of C runtime variable initialization code
  1128                           
  1129     003F                     __end_of__initialization:
  1130     003F  0183               	clrf	3
  1131     0040  120A  158A  2C82   	ljmp	_main	;jump to C main() function
  1132                           
  1133                           	psect	bssCOMMON
  1134     0079                     __pbssCOMMON:
  1135     0079                     read_digital_keypad@pre_key:
  1136     0079                     	ds	1
  1137     007A                     _water_level_index:
  1138     007A                     	ds	1
  1139     007B                     _program_no:
  1140     007B                     	ds	1
  1141                           
  1142                           	psect	bssBANK0
  1143     0060                     __pbssBANK0:
  1144     0060                     run_program@time:
  1145     0060                     	ds	2
  1146     0062                     run_program@total_time:
  1147     0062                     	ds	2
  1148     0064                     _rinse_time:
  1149     0064                     	ds	2
  1150     0066                     _wash_time:
  1151     0066                     	ds	2
  1152     0068                     read_digital_keypad@longpress:
  1153     0068                     	ds	1
  1154     0069                     _min:
  1155     0069                     	ds	1
  1156     006A                     _sec:
  1157     006A                     	ds	1
  1158                           
  1159                           	psect	dataBANK0
  1160     006D                     __pdataBANK0:
  1161     006D                     read_digital_keypad@once:
  1162     006D                     	ds	2
  1163                           
  1164                           	psect	bssBANK1
  1165     00C7                     __pbssBANK1:
  1166     00C7                     _spin_time:
  1167     00C7                     	ds	2
  1168     00C9                     isr@count:
  1169     00C9                     	ds	2
  1170                           
  1171                           	psect	dataBANK1
  1172     00A0                     __pdataBANK1:
  1173     00A0                     _washing_prog:
  1174     00A0                     	ds	24
  1175     00B8                     _water_level_arr:
  1176     00B8                     	ds	10
  1177                           
  1178                           	psect	inittext
  1179     14FA                     init_fetch0:	
  1180                           ;	Called with low address in FSR and high address in W
  1181                           
  1182     14FA  087E               	movf	btemp,w
  1183     14FB  008A               	movwf	10
  1184     14FC  087F               	movf	btemp+1,w
  1185     14FD  0082               	movwf	2
  1186     14FE                     init_ram0:	
  1187                           ;Called with:
  1188                           ;	high address of idata address in btemp 
  1189                           ;	low address of idata address in btemp+1 
  1190                           ;	low address of data in FSR
  1191                           ;	high address + 1 of data in btemp-1
  1192                           
  1193     14FE  160A  118A  24FA  160A  118A  	fcall	init_fetch0
  1194     1503  0080               	movwf	0
  1195     1504  0A84               	incf	4,f
  1196     1505  0804               	movf	4,w
  1197     1506  067D               	xorwf	btemp+-1,w
  1198     1507  1903               	btfsc	3,2
  1199     1508  3400               	retlw	0
  1200     1509  0AFF               	incf	btemp+1,f
  1201     150A  1903               	btfsc	3,2
  1202     150B  0AFE               	incf	btemp,f
  1203     150C  2CFE               	goto	init_ram0
  1204                           
  1205                           	psect	cstackBANK1
  1206     00C2                     __pcstackBANK1:
  1207     00C2                     main@j:
  1208                           
  1209                           ; 2 bytes @ 0x0
  1210     00C2                     	ds	2
  1211     00C4                     main@j_178:
  1212                           
  1213                           ; 2 bytes @ 0x2
  1214     00C4                     	ds	2
  1215     00C6                     main@key:
  1216                           
  1217                           ; 1 bytes @ 0x4
  1218     00C6                     	ds	1
  1219                           
  1220                           	psect	cstackCOMMON
  1221     0070                     __pcstackCOMMON:
  1222     0070                     ?_init_digital_keypad:
  1223     0070                     ?_init_timer2:	
  1224                           ; 1 bytes @ 0x0
  1225                           
  1226     0070                     ?_read_digital_keypad:	
  1227                           ; 1 bytes @ 0x0
  1228                           
  1229     0070                     ?_clear_screen:	
  1230                           ; 1 bytes @ 0x0
  1231                           
  1232     0070                     ?_power_on_screen:	
  1233                           ; 1 bytes @ 0x0
  1234                           
  1235     0070                     ?_set_time_for_program:	
  1236                           ; 1 bytes @ 0x0
  1237                           
  1238     0070                     ?_washing_program_display:	
  1239                           ; 1 bytes @ 0x0
  1240                           
  1241     0070                     ?_water_level_display:	
  1242                           ; 1 bytes @ 0x0
  1243                           
  1244     0070                     ?_run_program:	
  1245                           ; 1 bytes @ 0x0
  1246                           
  1247     0070                     ?_init_display_controller:	
  1248                           ; 1 bytes @ 0x0
  1249                           
  1250     0070                     ?_init_clcd:	
  1251                           ; 1 bytes @ 0x0
  1252                           
  1253     0070                     ?_isr:	
  1254                           ; 1 bytes @ 0x0
  1255                           
  1256     0070                     ?_init_config:	
  1257                           ; 1 bytes @ 0x0
  1258                           
  1259     0070                     ?_main:	
  1260                           ; 1 bytes @ 0x0
  1261                           
  1262     0070                     ?_door_status_check:	
  1263                           ; 1 bytes @ 0x0
  1264                           
  1265     0070                     ??_isr:	
  1266                           ; 1 bytes @ 0x0
  1267                           
  1268                           
  1269                           ; 1 bytes @ 0x0
  1270     0070                     	ds	2
  1271     0072                     ?_clcd_write:
  1272     0072                     ?__Umul8_16:	
  1273                           ; 1 bytes @ 0x2
  1274                           
  1275     0072                     ?___wmul:	
  1276                           ; 2 bytes @ 0x2
  1277                           
  1278     0072                     ?___awdiv:	
  1279                           ; 2 bytes @ 0x2
  1280                           
  1281     0072                     ?___awmod:	
  1282                           ; 2 bytes @ 0x2
  1283                           
  1284     0072                     ?___xxtofl:	
  1285                           ; 2 bytes @ 0x2
  1286                           
  1287     0072                     clcd_write@mode:	
  1288                           ; 4 bytes @ 0x2
  1289                           
  1290     0072                     ___fladd@signs:	
  1291                           ; 1 bytes @ 0x2
  1292                           
  1293     0072                     __Umul8_16@multiplicand:	
  1294                           ; 1 bytes @ 0x2
  1295                           
  1296     0072                     ___wmul@multiplier:	
  1297                           ; 1 bytes @ 0x2
  1298                           
  1299     0072                     ___awdiv@divisor:	
  1300                           ; 2 bytes @ 0x2
  1301                           
  1302     0072                     ___awmod@divisor:	
  1303                           ; 2 bytes @ 0x2
  1304                           
  1305     0072                     ___xxtofl@val:	
  1306                           ; 2 bytes @ 0x2
  1307                           
  1308     0072                     ??_init_digital_keypad:	
  1309                           ; 4 bytes @ 0x2
  1310                           
  1311     0072                     ??_init_timer2:	
  1312                           ; 1 bytes @ 0x2
  1313                           
  1314     0072                     ??_read_digital_keypad:	
  1315                           ; 1 bytes @ 0x2
  1316                           
  1317     0072                     ??_set_time_for_program:	
  1318                           ; 1 bytes @ 0x2
  1319                           
  1320                           
  1321                           ; 1 bytes @ 0x2
  1322     0072                     	ds	1
  1323     0073                     read_digital_keypad@mode:
  1324     0073                     ___fladd@aexp:	
  1325                           ; 1 bytes @ 0x3
  1326                           
  1327     0073                     ??_clcd_write:	
  1328                           ; 1 bytes @ 0x3
  1329                           
  1330                           
  1331                           ; 1 bytes @ 0x3
  1332     0073                     	ds	1
  1333     0074                     ___fladd@bexp:
  1334     0074                     ___wmul@multiplicand:	
  1335                           ; 1 bytes @ 0x4
  1336                           
  1337     0074                     ___awdiv@dividend:	
  1338                           ; 2 bytes @ 0x4
  1339                           
  1340     0074                     ___awmod@dividend:	
  1341                           ; 2 bytes @ 0x4
  1342                           
  1343     0074                     ??__Umul8_16:	
  1344                           ; 2 bytes @ 0x4
  1345                           
  1346                           
  1347                           ; 1 bytes @ 0x4
  1348     0074                     	ds	1
  1349     0075                     clcd_write@byte:
  1350     0075                     ___fladd@grs:	
  1351                           ; 1 bytes @ 0x5
  1352                           
  1353                           
  1354                           ; 1 bytes @ 0x5
  1355     0075                     	ds	1
  1356     0076                     ?_clcd_print:
  1357     0076                     ___awmod@counter:	
  1358                           ; 1 bytes @ 0x6
  1359                           
  1360     0076                     ___fltol@sign1:	
  1361                           ; 1 bytes @ 0x6
  1362                           
  1363     0076                     clcd_print@str:	
  1364                           ; 1 bytes @ 0x6
  1365                           
  1366     0076                     ___wmul@product:	
  1367                           ; 2 bytes @ 0x6
  1368                           
  1369     0076                     ??_clear_screen:	
  1370                           ; 2 bytes @ 0x6
  1371                           
  1372     0076                     ??_init_display_controller:	
  1373                           ; 1 bytes @ 0x6
  1374                           
  1375     0076                     ??___wmul:	
  1376                           ; 1 bytes @ 0x6
  1377                           
  1378     0076                     ??___awdiv:	
  1379                           ; 1 bytes @ 0x6
  1380                           
  1381     0076                     ??___awmod:	
  1382                           ; 1 bytes @ 0x6
  1383                           
  1384     0076                     ??___flsub:	
  1385                           ; 1 bytes @ 0x6
  1386                           
  1387                           
  1388                           ; 1 bytes @ 0x6
  1389     0076                     	ds	1
  1390     0077                     ___awmod@sign:
  1391     0077                     ___fltol@exp1:	
  1392                           ; 1 bytes @ 0x7
  1393                           
  1394                           
  1395                           ; 1 bytes @ 0x7
  1396     0077                     	ds	1
  1397     0078                     ?_clcd_putch:
  1398     0078                     clcd_putch@addr:	
  1399                           ; 1 bytes @ 0x8
  1400                           
  1401     0078                     clcd_print@addr:	
  1402                           ; 1 bytes @ 0x8
  1403                           
  1404     0078                     ??_init_clcd:	
  1405                           ; 1 bytes @ 0x8
  1406                           
  1407     0078                     ??_init_config:	
  1408                           ; 1 bytes @ 0x8
  1409                           
  1410                           
  1411                           ; 1 bytes @ 0x8
  1412     0078                     	ds	1
  1413     0079                     ??_clcd_putch:
  1414     0079                     ??_clcd_print:	
  1415                           ; 1 bytes @ 0x9
  1416                           
  1417     0079                     ??_main:	
  1418                           ; 1 bytes @ 0x9
  1419                           
  1420     0079                     ??_door_status_check:	
  1421                           ; 1 bytes @ 0x9
  1422                           
  1423                           
  1424                           	psect	cstackBANK0
  1425     0020                     __pcstackBANK0:	
  1426                           ; 1 bytes @ 0x9
  1427                           
  1428     0020                     ?___fladd:
  1429     0020                     ___awdiv@counter:	
  1430                           ; 4 bytes @ 0x0
  1431                           
  1432     0020                     __Umul8_16@product:	
  1433                           ; 1 bytes @ 0x0
  1434                           
  1435     0020                     ___fladd@b:	
  1436                           ; 2 bytes @ 0x0
  1437                           
  1438     0020                     ??___xxtofl:	
  1439                           ; 4 bytes @ 0x0
  1440                           
  1441                           
  1442                           ; 1 bytes @ 0x0
  1443     0020                     	ds	1
  1444     0021                     ___awdiv@sign:
  1445                           
  1446                           ; 1 bytes @ 0x1
  1447     0021                     	ds	1
  1448     0022                     ___awdiv@quotient:
  1449     0022                     __Umul8_16@word_mpld:	
  1450                           ; 2 bytes @ 0x2
  1451                           
  1452                           
  1453                           ; 2 bytes @ 0x2
  1454     0022                     	ds	2
  1455     0024                     clcd_putch@data:
  1456     0024                     __Umul8_16@multiplier:	
  1457                           ; 1 bytes @ 0x4
  1458                           
  1459     0024                     ___xxtofl@sign:	
  1460                           ; 1 bytes @ 0x4
  1461                           
  1462     0024                     ___fladd@a:	
  1463                           ; 1 bytes @ 0x4
  1464                           
  1465                           
  1466                           ; 4 bytes @ 0x4
  1467     0024                     	ds	1
  1468     0025                     ___xxtofl@exp:
  1469     0025                     ??_power_on_screen:	
  1470                           ; 1 bytes @ 0x5
  1471                           
  1472     0025                     ??_washing_program_display:	
  1473                           ; 1 bytes @ 0x5
  1474                           
  1475     0025                     ??_water_level_display:	
  1476                           ; 1 bytes @ 0x5
  1477                           
  1478                           
  1479                           ; 1 bytes @ 0x5
  1480     0025                     	ds	1
  1481     0026                     ___xxtofl@arg:
  1482                           
  1483                           ; 4 bytes @ 0x6
  1484     0026                     	ds	1
  1485     0027                     washing_program_display@key:
  1486     0027                     water_level_display@key:	
  1487                           ; 1 bytes @ 0x7
  1488                           
  1489                           
  1490                           ; 1 bytes @ 0x7
  1491     0027                     	ds	1
  1492     0028                     power_on_screen@i:
  1493     0028                     ??___fladd:	
  1494                           ; 1 bytes @ 0x8
  1495                           
  1496                           
  1497                           ; 1 bytes @ 0x8
  1498     0028                     	ds	1
  1499     0029                     power_on_screen@i_188:
  1500                           
  1501                           ; 1 bytes @ 0x9
  1502     0029                     	ds	1
  1503     002A                     ?___flmul:
  1504     002A                     power_on_screen@pos:	
  1505                           ; 4 bytes @ 0xA
  1506                           
  1507     002A                     ___flmul@b:	
  1508                           ; 1 bytes @ 0xA
  1509                           
  1510                           
  1511                           ; 4 bytes @ 0xA
  1512     002A                     	ds	4
  1513     002E                     ___flmul@a:
  1514                           
  1515                           ; 4 bytes @ 0xE
  1516     002E                     	ds	4
  1517     0032                     ??___flmul:
  1518                           
  1519                           ; 1 bytes @ 0x12
  1520     0032                     	ds	5
  1521     0037                     ___flmul@sign:
  1522                           
  1523                           ; 1 bytes @ 0x17
  1524     0037                     	ds	1
  1525     0038                     ___flmul@aexp:
  1526                           
  1527                           ; 1 bytes @ 0x18
  1528     0038                     	ds	1
  1529     0039                     ___flmul@grs:
  1530                           
  1531                           ; 4 bytes @ 0x19
  1532     0039                     	ds	4
  1533     003D                     ___flmul@bexp:
  1534                           
  1535                           ; 1 bytes @ 0x1D
  1536     003D                     	ds	1
  1537     003E                     ___flmul@prod:
  1538                           
  1539                           ; 4 bytes @ 0x1E
  1540     003E                     	ds	4
  1541     0042                     ___flmul@temp:
  1542                           
  1543                           ; 2 bytes @ 0x22
  1544     0042                     	ds	2
  1545     0044                     ?___fltol:
  1546     0044                     ?___flsub:	
  1547                           ; 4 bytes @ 0x24
  1548                           
  1549     0044                     ___fltol@f1:	
  1550                           ; 4 bytes @ 0x24
  1551                           
  1552     0044                     ___flsub@a:	
  1553                           ; 4 bytes @ 0x24
  1554                           
  1555                           
  1556                           ; 4 bytes @ 0x24
  1557     0044                     	ds	4
  1558     0048                     ___flsub@b:
  1559     0048                     ??___fltol:	
  1560                           ; 4 bytes @ 0x28
  1561                           
  1562                           
  1563                           ; 1 bytes @ 0x28
  1564     0048                     	ds	4
  1565     004C                     ?___flge:
  1566     004C                     ___flge@ff1:	
  1567                           ; 1 bit 
  1568                           
  1569                           
  1570                           ; 4 bytes @ 0x2C
  1571     004C                     	ds	4
  1572     0050                     ___flge@ff2:
  1573                           
  1574                           ; 4 bytes @ 0x30
  1575     0050                     	ds	4
  1576     0054                     ??___flge:
  1577                           
  1578                           ; 1 bytes @ 0x34
  1579     0054                     	ds	4
  1580     0058                     ??_run_program:
  1581                           
  1582                           ; 1 bytes @ 0x38
  1583     0058                     	ds	7
  1584     005F                     run_program@key:
  1585                           
  1586                           ; 1 bytes @ 0x3F
  1587     005F                     	ds	1
  1588                           
  1589                           	psect	maintext
  1590     0C82                     __pmaintext:	
  1591 ;;
  1592 ;;Main: autosize = 0, tempsize = 0, incstack = 0, save=0
  1593 ;;
  1594 ;; *************** function _main *****************
  1595 ;; Defined at:
  1596 ;;		line 40 in file "main.c"
  1597 ;; Parameters:    Size  Location     Type
  1598 ;;		None
  1599 ;; Auto vars:     Size  Location     Type
  1600 ;;  j               2    2[BANK1 ] int 
  1601 ;;  j               2    0[BANK1 ] int 
  1602 ;;  key             1    4[BANK1 ] unsigned char 
  1603 ;;  key_copy        1    0        unsigned char 
  1604 ;; Return value:  Size  Location     Type
  1605 ;;                  1    wreg      void 
  1606 ;; Registers used:
  1607 ;;		wreg, fsr0l, fsr0h, status,2, status,0, btemp+1, pclath, cstack
  1608 ;; Tracked objects:
  1609 ;;		On entry : B00/0
  1610 ;;		On exit  : 0/0
  1611 ;;		Unchanged: 0/0
  1612 ;; Data sizes:     COMMON   BANK0   BANK1   BANK3   BANK2
  1613 ;;      Params:         0       0       0       0       0
  1614 ;;      Locals:         0       0       5       0       0
  1615 ;;      Temps:          0       0       0       0       0
  1616 ;;      Totals:         0       0       5       0       0
  1617 ;;Total ram usage:        5 bytes
  1618 ;; Hardware stack levels required when called: 5
  1619 ;; This function calls:
  1620 ;;		_clcd_print
  1621 ;;		_clear_screen
  1622 ;;		_init_config
  1623 ;;		_power_on_screen
  1624 ;;		_read_digital_keypad
  1625 ;;		_run_program
  1626 ;;		_set_time_for_program
  1627 ;;		_washing_program_display
  1628 ;;		_water_level_display
  1629 ;; This function is called by:
  1630 ;;		Startup code after reset
  1631 ;; This function uses a non-reentrant model
  1632 ;;
  1633                           
  1634     0C82                     _main:	
  1635                           ;psect for function _main
  1636                           
  1637     0C82                     l4142:	
  1638                           ;incstack = 0
  1639                           ; Regs used in _main: [wreg-fsr0h+status,2+status,0+btemp+1+pclath+cstack]
  1640                           
  1641                           
  1642                           ;main.c: 42:    }
  1643     0C82  3001               	movlw	1
  1644     0C83  1283               	bcf	3,5	;RP0=0, select bank0
  1645     0C84  1303               	bcf	3,6	;RP1=0, select bank0
  1646     0C85  00EC               	movwf	_operation_mode
  1647                           
  1648                           ;main.c: 43: 
  1649     0C86  3010               	movlw	16
  1650     0C87  00EB               	movwf	_reset_mode
  1651     0C88                     l4144:
  1652                           
  1653                           ;main.c: 44:     clear_screen();
  1654     0C88  160A  118A  2522  120A  158A  	fcall	_init_config
  1655     0C8D                     l4146:
  1656                           
  1657                           ;main.c: 46: 
  1658     0C8D  3056               	movlw	low (STR_18| (0+32768))
  1659     0C8E  00F6               	movwf	clcd_print@str
  1660     0C8F  3090               	movlw	high (STR_18| (0+32768))
  1661     0C90  00F7               	movwf	clcd_print@str+1
  1662     0C91  3080               	movlw	128
  1663     0C92  00F8               	movwf	clcd_print@addr
  1664     0C93  160A  118A  25CB  120A  158A  	fcall	_clcd_print
  1665     0C98                     l4148:
  1666                           
  1667                           ;main.c: 47:    power_on_screen();
  1668     0C98  3012               	movlw	low (STR_19| (0+32768))
  1669     0C99  00F6               	movwf	clcd_print@str
  1670     0C9A  3090               	movlw	high (STR_19| (0+32768))
  1671     0C9B  00F7               	movwf	clcd_print@str+1
  1672     0C9C  30C0               	movlw	192
  1673     0C9D  00F8               	movwf	clcd_print@addr
  1674     0C9E  160A  118A  25CB  120A  158A  	fcall	_clcd_print
  1675     0CA3                     l4150:
  1676                           
  1677                           ;main.c: 48: 
  1678     0CA3  3045               	movlw	low (STR_20| (0+32768))
  1679     0CA4  00F6               	movwf	clcd_print@str
  1680     0CA5  3090               	movlw	high (STR_20| (0+32768))
  1681     0CA6  00F7               	movwf	clcd_print@str+1
  1682     0CA7  3090               	movlw	144
  1683     0CA8  00F8               	movwf	clcd_print@addr
  1684     0CA9  160A  118A  25CB  120A  158A  	fcall	_clcd_print
  1685                           
  1686                           ;main.c: 50:     while(1) {
  1687     0CAE  2CC3               	goto	l4156
  1688     0CAF                     l4152:
  1689                           
  1690                           ;main.c: 51:         key = read_digital_keypad(1);;main.c: 52:          for(int j=3000; 
      +                          j--; );
  1691     0CAF  30B8               	movlw	184
  1692     0CB0  1683               	bsf	3,5	;RP0=1, select bank1
  1693     0CB1  1303               	bcf	3,6	;RP1=0, select bank1
  1694     0CB2  00C2               	movwf	main@j^(0+128)
  1695     0CB3  300B               	movlw	11
  1696     0CB4  00C3               	movwf	(main@j^(0+128)+1)
  1697     0CB5                     l4154:
  1698     0CB5  30FF               	movlw	255
  1699     0CB6  07C2               	addwf	main@j^(0+128),f
  1700     0CB7  1803               	skipnc
  1701     0CB8  0AC3               	incf	(main@j+1)^(0+128),f
  1702     0CB9  30FF               	movlw	255
  1703     0CBA  07C3               	addwf	(main@j+1)^(0+128),f
  1704     0CBB  0A42               	incf	main@j^(0+128),w
  1705     0CBC  1D03               	skipz
  1706     0CBD  2CC2               	goto	u5731
  1707     0CBE  0A43               	incf	(main@j+1)^(0+128),w
  1708     0CBF  1D03               	btfss	3,2
  1709     0CC0  2CC2               	goto	u5731
  1710     0CC1  2CC3               	goto	u5730
  1711     0CC2                     u5731:
  1712     0CC2  2CB5               	goto	l4154
  1713     0CC3                     u5730:
  1714     0CC3                     l4156:
  1715                           
  1716                           ;main.c: 50:     while(1) {
  1717     0CC3  3001               	movlw	1
  1718     0CC4  160A  118A  2728  120A  158A  	fcall	_read_digital_keypad
  1719     0CC9  3A2F               	xorlw	47
  1720     0CCA  1D03               	skipz
  1721     0CCB  2CCD               	goto	u5741
  1722     0CCC  2CCE               	goto	u5740
  1723     0CCD                     u5741:
  1724     0CCD  2CAF               	goto	l4152
  1725     0CCE                     u5740:
  1726     0CCE                     l4158:
  1727                           
  1728                           ;main.c: 56: 
  1729     0CCE  160A  118A  24ED  120A  158A  	fcall	_clear_screen
  1730     0CD3                     l4160:
  1731                           
  1732                           ;main.c: 59:         }
  1733     0CD3  120A  158A  206A  120A  158A  	fcall	_power_on_screen
  1734     0CD8                     l4162:
  1735                           
  1736                           ;main.c: 63:             set_time_for_program();
  1737     0CD8  3001               	movlw	1
  1738     0CD9  160A  118A  2728  120A  158A  	fcall	_read_digital_keypad
  1739     0CDE  1683               	bsf	3,5	;RP0=1, select bank1
  1740     0CDF  1303               	bcf	3,6	;RP1=0, select bank1
  1741     0CE0  00C6               	movwf	main@key^(0+128)
  1742     0CE1                     l4164:
  1743                           
  1744                           ;main.c: 64: 
  1745     0CE1  30B8               	movlw	184
  1746     0CE2  00C4               	movwf	main@j_178^(0+128)
  1747     0CE3  300B               	movlw	11
  1748     0CE4  00C5               	movwf	(main@j_178^(0+128)+1)
  1749     0CE5                     l4166:
  1750     0CE5  30FF               	movlw	255
  1751     0CE6  07C4               	addwf	main@j_178^(0+128),f
  1752     0CE7  1803               	skipnc
  1753     0CE8  0AC5               	incf	(main@j_178+1)^(0+128),f
  1754     0CE9  30FF               	movlw	255
  1755     0CEA  07C5               	addwf	(main@j_178+1)^(0+128),f
  1756     0CEB  0A44               	incf	main@j_178^(0+128),w
  1757     0CEC  1D03               	skipz
  1758     0CED  2CF2               	goto	u5751
  1759     0CEE  0A45               	incf	(main@j_178+1)^(0+128),w
  1760     0CEF  1D03               	btfss	3,2
  1761     0CF0  2CF2               	goto	u5751
  1762     0CF1  2CF3               	goto	u5750
  1763     0CF2                     u5751:
  1764     0CF2  2CE5               	goto	l4166
  1765     0CF3                     u5750:
  1766     0CF3                     l4168:
  1767                           
  1768                           ;main.c: 66: 
  1769     0CF3  30B7               	movlw	183
  1770     0CF4  0646               	xorwf	main@key^(0+128),w
  1771     0CF5  1D03               	btfss	3,2
  1772     0CF6  2CF8               	goto	u5761
  1773     0CF7  2CF9               	goto	u5760
  1774     0CF8                     u5761:
  1775     0CF8  2D05               	goto	l4174
  1776     0CF9                     u5760:
  1777     0CF9                     l4170:
  1778     0CF9  1283               	bcf	3,5	;RP0=0, select bank0
  1779     0CFA  1303               	bcf	3,6	;RP1=0, select bank0
  1780     0CFB  036C               	decf	_operation_mode,w
  1781     0CFC  1D03               	btfss	3,2
  1782     0CFD  2CFF               	goto	u5771
  1783     0CFE  2D00               	goto	u5770
  1784     0CFF                     u5771:
  1785     0CFF  2D05               	goto	l4174
  1786     0D00                     u5770:
  1787     0D00                     l4172:
  1788                           
  1789                           ;main.c: 67:             clcd_print("Press Switch", (0x80+0));;main.c: 69:             c
      +                          lcd_print(" SW6: STOP ", (0x90+0));
  1790     0D00  3002               	movlw	2
  1791     0D01  00EC               	movwf	_operation_mode
  1792                           
  1793                           ;main.c: 70:             operation_mode = 0x03;
  1794     0D02  3011               	movlw	17
  1795     0D03  00EB               	movwf	_reset_mode
  1796                           
  1797                           ;main.c: 71:         }
  1798     0D04  2D92               	goto	l4214
  1799     0D05                     l4174:
  1800     0D05  30B7               	movlw	183
  1801     0D06  1683               	bsf	3,5	;RP0=1, select bank1
  1802     0D07  1303               	bcf	3,6	;RP1=0, select bank1
  1803     0D08  0646               	xorwf	main@key^(0+128),w
  1804     0D09  1D03               	btfss	3,2
  1805     0D0A  2D0C               	goto	u5781
  1806     0D0B  2D0D               	goto	u5780
  1807     0D0C                     u5781:
  1808     0D0C  2D45               	goto	l4190
  1809     0D0D                     u5780:
  1810     0D0D                     l4176:
  1811     0D0D  3002               	movlw	2
  1812     0D0E  1283               	bcf	3,5	;RP0=0, select bank0
  1813     0D0F  1303               	bcf	3,6	;RP1=0, select bank0
  1814     0D10  066C               	xorwf	_operation_mode,w
  1815     0D11  1D03               	btfss	3,2
  1816     0D12  2D14               	goto	u5791
  1817     0D13  2D15               	goto	u5790
  1818     0D14                     u5791:
  1819     0D14  2D45               	goto	l4190
  1820     0D15                     u5790:
  1821     0D15                     l4178:
  1822                           
  1823                           ;main.c: 73:         {;main.c: 75:             RC2 = 1;
  1824     0D15  120A  158A  2387  120A  158A  	fcall	_set_time_for_program
  1825     0D1A                     l4180:
  1826                           
  1827                           ;main.c: 77:         }
  1828     0D1A  160A  118A  24ED  120A  158A  	fcall	_clear_screen
  1829     0D1F                     l4182:
  1830                           
  1831                           ;main.c: 79:         switch(operation_mode)
  1832     0D1F  30AE               	movlw	low (STR_21| (0+32768))
  1833     0D20  00F6               	movwf	clcd_print@str
  1834     0D21  3090               	movlw	high (STR_21| (0+32768))
  1835     0D22  00F7               	movwf	clcd_print@str+1
  1836     0D23  3080               	movlw	128
  1837     0D24  00F8               	movwf	clcd_print@addr
  1838     0D25  160A  118A  25CB  120A  158A  	fcall	_clcd_print
  1839     0D2A                     l4184:
  1840                           
  1841                           ;main.c: 80:         {
  1842     0D2A  3094               	movlw	low (STR_22| (0+32768))
  1843     0D2B  00F6               	movwf	clcd_print@str
  1844     0D2C  3090               	movlw	high (STR_22| (0+32768))
  1845     0D2D  00F7               	movwf	clcd_print@str+1
  1846     0D2E  30C0               	movlw	192
  1847     0D2F  00F8               	movwf	clcd_print@addr
  1848     0D30  160A  118A  25CB  120A  158A  	fcall	_clcd_print
  1849     0D35                     l4186:
  1850                           
  1851                           ;main.c: 81: 
  1852     0D35  30BB               	movlw	low (STR_23| (0+32768))
  1853     0D36  00F6               	movwf	clcd_print@str
  1854     0D37  3090               	movlw	high (STR_23| (0+32768))
  1855     0D38  00F7               	movwf	clcd_print@str+1
  1856     0D39  3090               	movlw	144
  1857     0D3A  00F8               	movwf	clcd_print@addr
  1858     0D3B  160A  118A  25CB  120A  158A  	fcall	_clcd_print
  1859     0D40                     l4188:
  1860                           
  1861                           ;main.c: 82:             case 0x01:
  1862     0D40  3003               	movlw	3
  1863     0D41  1283               	bcf	3,5	;RP0=0, select bank0
  1864     0D42  1303               	bcf	3,6	;RP1=0, select bank0
  1865     0D43  00EC               	movwf	_operation_mode
  1866                           
  1867                           ;main.c: 83:                  washing_program_display(key);
  1868     0D44  2D92               	goto	l4214
  1869     0D45                     l4190:
  1870     0D45  302F               	movlw	47
  1871     0D46  1683               	bsf	3,5	;RP0=1, select bank1
  1872     0D47  1303               	bcf	3,6	;RP1=0, select bank1
  1873     0D48  0646               	xorwf	main@key^(0+128),w
  1874     0D49  1D03               	btfss	3,2
  1875     0D4A  2D4C               	goto	u5801
  1876     0D4B  2D4D               	goto	u5800
  1877     0D4C                     u5801:
  1878     0D4C  2D5A               	goto	l137
  1879     0D4D                     u5800:
  1880     0D4D                     l4192:
  1881     0D4D  3005               	movlw	5
  1882     0D4E  1283               	bcf	3,5	;RP0=0, select bank0
  1883     0D4F  1303               	bcf	3,6	;RP1=0, select bank0
  1884     0D50  066C               	xorwf	_operation_mode,w
  1885     0D51  1D03               	btfss	3,2
  1886     0D52  2D54               	goto	u5811
  1887     0D53  2D55               	goto	u5810
  1888     0D54                     u5811:
  1889     0D54  2D5A               	goto	l137
  1890     0D55                     u5810:
  1891     0D55                     l4194:
  1892                           
  1893                           ;main.c: 85:             case 0x02:;main.c: 86:                 water_level_display(key)
      +                          ;
  1894     0D55  1512               	bsf	18,2	;volatile
  1895                           
  1896                           ;main.c: 87:                 break;
  1897     0D56  1507               	bsf	7,2	;volatile
  1898                           
  1899                           ;main.c: 88:             case 0x03:
  1900     0D57  3004               	movlw	4
  1901     0D58  00EC               	movwf	_operation_mode
  1902     0D59  2D92               	goto	l4214
  1903     0D5A                     l137:
  1904                           
  1905                           ;main.c: 91:                     operation_mode = 0x04;
  1906     0D5A  2D92               	goto	l4214
  1907     0D5B                     l4196:
  1908                           
  1909                           ;main.c: 95:                 else if(key == 0x1F)
  1910     0D5B  1683               	bsf	3,5	;RP0=1, select bank1
  1911     0D5C  1303               	bcf	3,6	;RP1=0, select bank1
  1912     0D5D  0846               	movf	main@key^(0+128),w
  1913     0D5E  120A  158A  21A3  120A  158A  	fcall	_washing_program_display
  1914                           
  1915                           ;main.c: 96:                 {
  1916     0D63  2DA1               	goto	l4216
  1917     0D64                     l4198:
  1918                           
  1919                           ;main.c: 98:                     reset_mode = 0x10;
  1920     0D64  1683               	bsf	3,5	;RP0=1, select bank1
  1921     0D65  1303               	bcf	3,6	;RP1=0, select bank1
  1922     0D66  0846               	movf	main@key^(0+128),w
  1923     0D67  120A  158A  2295  120A  158A  	fcall	_water_level_display
  1924                           
  1925                           ;main.c: 99:                     continue;
  1926     0D6C  2DA1               	goto	l4216
  1927     0D6D                     l4200:
  1928                           
  1929                           ;main.c: 101:                 }
  1930     0D6D  302F               	movlw	47
  1931     0D6E  1683               	bsf	3,5	;RP0=1, select bank1
  1932     0D6F  1303               	bcf	3,6	;RP1=0, select bank1
  1933     0D70  0646               	xorwf	main@key^(0+128),w
  1934     0D71  1D03               	btfss	3,2
  1935     0D72  2D74               	goto	u5821
  1936     0D73  2D75               	goto	u5820
  1937     0D74                     u5821:
  1938     0D74  2D7C               	goto	l4206
  1939     0D75                     u5820:
  1940     0D75                     l4202:
  1941                           
  1942                           ;main.c: 102:                 break;;main.c: 103:             case 0x04:
  1943     0D75  3004               	movlw	4
  1944     0D76  1283               	bcf	3,5	;RP0=0, select bank0
  1945     0D77  1303               	bcf	3,6	;RP1=0, select bank0
  1946     0D78  00EC               	movwf	_operation_mode
  1947                           
  1948                           ;main.c: 104:                 run_program(key);
  1949     0D79  3012               	movlw	18
  1950     0D7A  00EB               	movwf	_reset_mode
  1951                           
  1952                           ;main.c: 105:                 break;
  1953     0D7B  2CD8               	goto	l4162
  1954     0D7C                     l4206:
  1955     0D7C  301F               	movlw	31
  1956     0D7D  0646               	xorwf	main@key^(0+128),w
  1957     0D7E  1D03               	btfss	3,2
  1958     0D7F  2D81               	goto	u5831
  1959     0D80  2D82               	goto	u5830
  1960     0D81                     u5831:
  1961     0D81  2DA1               	goto	l4216
  1962     0D82                     u5830:
  1963     0D82                     l4208:
  1964                           
  1965                           ;main.c: 108:         reset_mode = 0x00;;main.c: 109:     }
  1966     0D82  3001               	movlw	1
  1967     0D83  1283               	bcf	3,5	;RP0=0, select bank0
  1968     0D84  1303               	bcf	3,6	;RP1=0, select bank0
  1969     0D85  00EC               	movwf	_operation_mode
  1970                           
  1971                           ;main.c: 110: 
  1972     0D86  3010               	movlw	16
  1973     0D87  00EB               	movwf	_reset_mode
  1974                           
  1975                           ;main.c: 111: }
  1976     0D88  2CD8               	goto	l4162
  1977     0D89                     l4210:
  1978                           
  1979                           ;main.c: 116:      _delay((unsigned long)((100)*(20000000/4000000.0)));
  1980     0D89  1683               	bsf	3,5	;RP0=1, select bank1
  1981     0D8A  1303               	bcf	3,6	;RP1=0, select bank1
  1982     0D8B  0846               	movf	main@key^(0+128),w
  1983     0D8C  120A  118A  2043  120A  158A  	fcall	_run_program
  1984                           
  1985                           ;main.c: 117: }
  1986     0D91  2DA1               	goto	l4216
  1987     0D92                     l4214:
  1988     0D92  1283               	bcf	3,5	;RP0=0, select bank0
  1989     0D93  086C               	movf	_operation_mode,w
  1990                           
  1991                           ; Switch size 1, requested type "simple"
  1992                           ; Number of cases is 4, Range of values is 1 to 4
  1993                           ; switch strategies available:
  1994                           ; Name         Instructions Cycles
  1995                           ; simple_byte           13     7 (average)
  1996                           ; direct_byte           23    11 (fixed)
  1997                           ; jumptable            263     9 (fixed)
  1998                           ;	Chosen strategy is simple_byte
  1999     0D94  3A01               	xorlw	1	; case 1
  2000     0D95  1903               	skipnz
  2001     0D96  2D5B               	goto	l4196
  2002     0D97  3A03               	xorlw	3	; case 2
  2003     0D98  1903               	skipnz
  2004     0D99  2D64               	goto	l4198
  2005     0D9A  3A01               	xorlw	1	; case 3
  2006     0D9B  1903               	skipnz
  2007     0D9C  2D6D               	goto	l4200
  2008     0D9D  3A07               	xorlw	7	; case 4
  2009     0D9E  1903               	skipnz
  2010     0D9F  2D89               	goto	l4210
  2011     0DA0  2DA1               	goto	l4216
  2012     0DA1                     l4216:
  2013                           
  2014                           ;main.c: 120: {
  2015     0DA1  1283               	bcf	3,5	;RP0=0, select bank0
  2016     0DA2  1303               	bcf	3,6	;RP1=0, select bank0
  2017     0DA3  01EB               	clrf	_reset_mode
  2018     0DA4  2CD8               	goto	l4162
  2019     0DA5  120A  118A  280C   	ljmp	start
  2020     0DA8                     __end_of_main:
  2021                           
  2022                           	psect	text1
  2023     0A95                     __ptext1:	
  2024 ;; *************** function _water_level_display *****************
  2025 ;; Defined at:
  2026 ;;		line 195 in file "main.c"
  2027 ;; Parameters:    Size  Location     Type
  2028 ;;  key             1    wreg     unsigned char 
  2029 ;; Auto vars:     Size  Location     Type
  2030 ;;  key             1    7[BANK0 ] unsigned char 
  2031 ;; Return value:  Size  Location     Type
  2032 ;;                  1    wreg      void 
  2033 ;; Registers used:
  2034 ;;		wreg, fsr0l, fsr0h, status,2, status,0, btemp+1, pclath, cstack
  2035 ;; Tracked objects:
  2036 ;;		On entry : 0/0
  2037 ;;		On exit  : 0/0
  2038 ;;		Unchanged: 0/0
  2039 ;; Data sizes:     COMMON   BANK0   BANK1   BANK3   BANK2
  2040 ;;      Params:         0       0       0       0       0
  2041 ;;      Locals:         0       1       0       0       0
  2042 ;;      Temps:          0       2       0       0       0
  2043 ;;      Totals:         0       3       0       0       0
  2044 ;;Total ram usage:        3 bytes
  2045 ;; Hardware stack levels used: 1
  2046 ;; Hardware stack levels required when called: 3
  2047 ;; This function calls:
  2048 ;;		_clcd_print
  2049 ;;		_clcd_putch
  2050 ;;		_clear_screen
  2051 ;; This function is called by:
  2052 ;;		_main
  2053 ;; This function uses a non-reentrant model
  2054 ;;
  2055                           
  2056     0A95                     _water_level_display:	
  2057                           ;psect for function _water_level_display
  2058                           
  2059                           
  2060                           ;incstack = 0
  2061                           ; Regs used in _water_level_display: [wreg-fsr0h+status,2+status,0+btemp+1+pclath+cstack
      +                          ]
  2062                           ;water_level_display@key stored from wreg
  2063     0A95  1283               	bcf	3,5	;RP0=0, select bank0
  2064     0A96  1303               	bcf	3,6	;RP1=0, select bank0
  2065     0A97  00A7               	movwf	water_level_display@key
  2066     0A98                     l4004:
  2067                           
  2068                           ;main.c: 195:             water_level_index = 0;;main.c: 196:         };main.c: 197:    
      +                               clear_screen();
  2069     0A98  3011               	movlw	17
  2070     0A99  066B               	xorwf	_reset_mode,w
  2071     0A9A  1D03               	btfss	3,2
  2072     0A9B  2A9D               	goto	u5571
  2073     0A9C  2A9E               	goto	u5570
  2074     0A9D                     u5571:
  2075     0A9D  2AA4               	goto	l4010
  2076     0A9E                     u5570:
  2077     0A9E                     l4006:
  2078                           
  2079                           ;main.c: 198: ;main.c: 199:     }
  2080     0A9E  01FA               	clrf	_water_level_index
  2081     0A9F                     l4008:
  2082                           
  2083                           ;main.c: 200: 
  2084     0A9F  160A  118A  24ED  120A  158A  	fcall	_clear_screen
  2085     0AA4                     l4010:
  2086                           
  2087                           ;main.c: 202:     clcd_putch('>', (0xC0+0));
  2088     0AA4  3037               	movlw	55
  2089     0AA5  1283               	bcf	3,5	;RP0=0, select bank0
  2090     0AA6  1303               	bcf	3,6	;RP1=0, select bank0
  2091     0AA7  0627               	xorwf	water_level_display@key,w
  2092     0AA8  1D03               	btfss	3,2
  2093     0AA9  2AAB               	goto	u5581
  2094     0AAA  2AAC               	goto	u5580
  2095     0AAB                     u5581:
  2096     0AAB  2ABA               	goto	l4018
  2097     0AAC                     u5580:
  2098     0AAC                     l4012:
  2099                           
  2100                           ;main.c: 203:     if(water_level_index <= 2);main.c: 204:     {
  2101     0AAC  3001               	movlw	1
  2102     0AAD  07FA               	addwf	_water_level_index,f
  2103                           
  2104                           ;main.c: 205:         clcd_print(water_level_arr[water_level_index], (0xC0+2));
  2105     0AAE  3005               	movlw	5
  2106     0AAF  067A               	xorwf	_water_level_index,w
  2107     0AB0  1D03               	btfss	3,2
  2108     0AB1  2AB3               	goto	u5591
  2109     0AB2  2AB4               	goto	u5590
  2110     0AB3                     u5591:
  2111     0AB3  2AB5               	goto	l4016
  2112     0AB4                     u5590:
  2113     0AB4                     l4014:
  2114                           
  2115                           ;main.c: 206:         clcd_print(water_level_arr[water_level_index + 1], (0x90+2));;main
      +                          .c: 207:         clcd_print(water_level_arr[water_level_index + 2], (0xD0+2));
  2116     0AB4  01FA               	clrf	_water_level_index
  2117     0AB5                     l4016:
  2118                           
  2119                           ;main.c: 209:     else if(water_level_index == 3)
  2120     0AB5  160A  118A  24ED  120A  158A  	fcall	_clear_screen
  2121     0ABA                     l4018:
  2122                           
  2123                           ;main.c: 213:         clcd_print(water_level_arr[0],(0xD0+2));
  2124     0ABA  30D3               	movlw	low (STR_27| (0+32768))
  2125     0ABB  00F6               	movwf	clcd_print@str
  2126     0ABC  3090               	movlw	high (STR_27| (0+32768))
  2127     0ABD  00F7               	movwf	clcd_print@str+1
  2128     0ABE  3080               	movlw	128
  2129     0ABF  00F8               	movwf	clcd_print@addr
  2130     0AC0  160A  118A  25CB  120A  158A  	fcall	_clcd_print
  2131     0AC5                     l4020:
  2132                           
  2133                           ;main.c: 214:     }
  2134     0AC5  30C0               	movlw	192
  2135     0AC6  00F8               	movwf	clcd_putch@addr
  2136     0AC7  303E               	movlw	62
  2137     0AC8  160A  118A  250D  120A  158A  	fcall	_clcd_putch
  2138     0ACD                     l4022:
  2139                           
  2140                           ;main.c: 215:      else if(water_level_index == 4)
  2141     0ACD  3003               	movlw	3
  2142     0ACE  027A               	subwf	_water_level_index,w
  2143     0ACF  1803               	skipnc
  2144     0AD0  2AD2               	goto	u5601
  2145     0AD1  2AD3               	goto	u5600
  2146     0AD2                     u5601:
  2147     0AD2  2B13               	goto	l4026
  2148     0AD3                     u5600:
  2149     0AD3                     l4024:
  2150                           
  2151                           ;main.c: 216:     {;main.c: 217:         clcd_print(water_level_arr[water_level_index], 
      +                          (0xC0+2));
  2152     0AD3  087A               	movf	_water_level_index,w
  2153     0AD4  1283               	bcf	3,5	;RP0=0, select bank0
  2154     0AD5  1303               	bcf	3,6	;RP1=0, select bank0
  2155     0AD6  00A5               	movwf	??_water_level_display
  2156     0AD7  0725               	addwf	??_water_level_display,w
  2157     0AD8  3EB8               	addlw	(low (_water_level_arr| 0))& (0+255)
  2158     0AD9  0084               	movwf	4
  2159     0ADA  1383               	bcf	3,7	;select IRP bank1
  2160     0ADB  0800               	movf	0,w
  2161     0ADC  00F6               	movwf	clcd_print@str
  2162     0ADD  0A84               	incf	4,f
  2163     0ADE  0800               	movf	0,w
  2164     0ADF  0384               	decf	4,f
  2165     0AE0  00F7               	movwf	clcd_print@str+1
  2166     0AE1  30C2               	movlw	194
  2167     0AE2  00F8               	movwf	clcd_print@addr
  2168     0AE3  160A  118A  25CB  120A  158A  	fcall	_clcd_print
  2169                           
  2170                           ;main.c: 218:         clcd_print(water_level_arr[0], (0x90+2));
  2171     0AE8  087A               	movf	_water_level_index,w
  2172     0AE9  1283               	bcf	3,5	;RP0=0, select bank0
  2173     0AEA  1303               	bcf	3,6	;RP1=0, select bank0
  2174     0AEB  00A5               	movwf	??_water_level_display
  2175     0AEC  0725               	addwf	??_water_level_display,w
  2176     0AED  3EBA               	addlw	(low ((_water_level_arr| 0+2)))& (0+255)
  2177     0AEE  0084               	movwf	4
  2178     0AEF  1383               	bcf	3,7	;select IRP bank1
  2179     0AF0  0800               	movf	0,w
  2180     0AF1  00F6               	movwf	clcd_print@str
  2181     0AF2  0A84               	incf	4,f
  2182     0AF3  0800               	movf	0,w
  2183     0AF4  0384               	decf	4,f
  2184     0AF5  00F7               	movwf	clcd_print@str+1
  2185     0AF6  3092               	movlw	146
  2186     0AF7  00F8               	movwf	clcd_print@addr
  2187     0AF8  160A  118A  25CB  120A  158A  	fcall	_clcd_print
  2188                           
  2189                           ;main.c: 219:         clcd_print(water_level_arr[1], (0xD0+2));
  2190     0AFD  087A               	movf	_water_level_index,w
  2191     0AFE  1283               	bcf	3,5	;RP0=0, select bank0
  2192     0AFF  1303               	bcf	3,6	;RP1=0, select bank0
  2193     0B00  00A5               	movwf	??_water_level_display
  2194     0B01  0725               	addwf	??_water_level_display,w
  2195     0B02  3EBC               	addlw	(low ((_water_level_arr| 0+4)))& (0+255)
  2196     0B03  0084               	movwf	4
  2197     0B04  1383               	bcf	3,7	;select IRP bank1
  2198     0B05  0800               	movf	0,w
  2199     0B06  00F6               	movwf	clcd_print@str
  2200     0B07  0A84               	incf	4,f
  2201     0B08  0800               	movf	0,w
  2202     0B09  0384               	decf	4,f
  2203     0B0A  00F7               	movwf	clcd_print@str+1
  2204     0B0B  30D2               	movlw	210
  2205     0B0C  00F8               	movwf	clcd_print@addr
  2206     0B0D  160A  118A  25CB  120A  158A  	fcall	_clcd_print
  2207                           
  2208                           ;main.c: 220:     }
  2209     0B12  2B86               	goto	l186
  2210     0B13                     l4026:
  2211     0B13  3003               	movlw	3
  2212     0B14  067A               	xorwf	_water_level_index,w
  2213     0B15  1D03               	btfss	3,2
  2214     0B16  2B18               	goto	u5611
  2215     0B17  2B19               	goto	u5610
  2216     0B18                     u5611:
  2217     0B18  2B51               	goto	l4030
  2218     0B19                     u5610:
  2219     0B19                     l4028:
  2220                           
  2221                           ;main.c: 222: ;main.c: 223: void set_time_for_program(void)
  2222     0B19  087A               	movf	_water_level_index,w
  2223     0B1A  1283               	bcf	3,5	;RP0=0, select bank0
  2224     0B1B  1303               	bcf	3,6	;RP1=0, select bank0
  2225     0B1C  00A5               	movwf	??_water_level_display
  2226     0B1D  0725               	addwf	??_water_level_display,w
  2227     0B1E  3EB8               	addlw	(low (_water_level_arr| 0))& (0+255)
  2228     0B1F  0084               	movwf	4
  2229     0B20  1383               	bcf	3,7	;select IRP bank1
  2230     0B21  0800               	movf	0,w
  2231     0B22  00F6               	movwf	clcd_print@str
  2232     0B23  0A84               	incf	4,f
  2233     0B24  0800               	movf	0,w
  2234     0B25  0384               	decf	4,f
  2235     0B26  00F7               	movwf	clcd_print@str+1
  2236     0B27  30C2               	movlw	194
  2237     0B28  00F8               	movwf	clcd_print@addr
  2238     0B29  160A  118A  25CB  120A  158A  	fcall	_clcd_print
  2239                           
  2240                           ;main.c: 224: {
  2241     0B2E  087A               	movf	_water_level_index,w
  2242     0B2F  1283               	bcf	3,5	;RP0=0, select bank0
  2243     0B30  1303               	bcf	3,6	;RP1=0, select bank0
  2244     0B31  00A5               	movwf	??_water_level_display
  2245     0B32  0725               	addwf	??_water_level_display,w
  2246     0B33  3EBA               	addlw	(low ((_water_level_arr| 0+2)))& (0+255)
  2247     0B34  0084               	movwf	4
  2248     0B35  1383               	bcf	3,7	;select IRP bank1
  2249     0B36  0800               	movf	0,w
  2250     0B37  00F6               	movwf	clcd_print@str
  2251     0B38  0A84               	incf	4,f
  2252     0B39  0800               	movf	0,w
  2253     0B3A  0384               	decf	4,f
  2254     0B3B  00F7               	movwf	clcd_print@str+1
  2255     0B3C  3092               	movlw	146
  2256     0B3D  00F8               	movwf	clcd_print@addr
  2257     0B3E  160A  118A  25CB  120A  158A  	fcall	_clcd_print
  2258                           
  2259                           ;main.c: 225:     switch(program_no)
  2260     0B43  1683               	bsf	3,5	;RP0=1, select bank1
  2261     0B44  1303               	bcf	3,6	;RP1=0, select bank1
  2262     0B45  0838               	movf	_water_level_arr^(0+128),w
  2263     0B46  00F6               	movwf	clcd_print@str
  2264     0B47  0839               	movf	(_water_level_arr+1)^(0+128),w
  2265     0B48  00F7               	movwf	clcd_print@str+1
  2266     0B49  30D2               	movlw	210
  2267     0B4A  00F8               	movwf	clcd_print@addr
  2268     0B4B  160A  118A  25CB  120A  158A  	fcall	_clcd_print
  2269                           
  2270                           ;main.c: 226:     {
  2271     0B50  2B86               	goto	l186
  2272     0B51                     l4030:
  2273     0B51  3004               	movlw	4
  2274     0B52  067A               	xorwf	_water_level_index,w
  2275     0B53  1D03               	btfss	3,2
  2276     0B54  2B56               	goto	u5621
  2277     0B55  2B57               	goto	u5620
  2278     0B56                     u5621:
  2279     0B56  2B86               	goto	l186
  2280     0B57                     u5620:
  2281     0B57                     l4032:
  2282                           
  2283                           ;main.c: 228:         switch(water_level_index);main.c: 229:         {
  2284     0B57  087A               	movf	_water_level_index,w
  2285     0B58  1283               	bcf	3,5	;RP0=0, select bank0
  2286     0B59  1303               	bcf	3,6	;RP1=0, select bank0
  2287     0B5A  00A5               	movwf	??_water_level_display
  2288     0B5B  0725               	addwf	??_water_level_display,w
  2289     0B5C  3EB8               	addlw	(low (_water_level_arr| 0))& (0+255)
  2290     0B5D  0084               	movwf	4
  2291     0B5E  1383               	bcf	3,7	;select IRP bank1
  2292     0B5F  0800               	movf	0,w
  2293     0B60  00F6               	movwf	clcd_print@str
  2294     0B61  0A84               	incf	4,f
  2295     0B62  0800               	movf	0,w
  2296     0B63  0384               	decf	4,f
  2297     0B64  00F7               	movwf	clcd_print@str+1
  2298     0B65  30C2               	movlw	194
  2299     0B66  00F8               	movwf	clcd_print@addr
  2300     0B67  160A  118A  25CB  120A  158A  	fcall	_clcd_print
  2301                           
  2302                           ;main.c: 230: 
  2303     0B6C  1683               	bsf	3,5	;RP0=1, select bank1
  2304     0B6D  1303               	bcf	3,6	;RP1=0, select bank1
  2305     0B6E  0838               	movf	_water_level_arr^(0+128),w
  2306     0B6F  00F6               	movwf	clcd_print@str
  2307     0B70  0839               	movf	(_water_level_arr+1)^(0+128),w
  2308     0B71  00F7               	movwf	clcd_print@str+1
  2309     0B72  3092               	movlw	146
  2310     0B73  00F8               	movwf	clcd_print@addr
  2311     0B74  160A  118A  25CB  120A  158A  	fcall	_clcd_print
  2312                           
  2313                           ;main.c: 231:             case 1:
  2314     0B79  1683               	bsf	3,5	;RP0=1, select bank1
  2315     0B7A  1303               	bcf	3,6	;RP1=0, select bank1
  2316     0B7B  083A               	movf	(low ((_water_level_arr| 0+2)))^(0+128),w
  2317     0B7C  00F6               	movwf	clcd_print@str
  2318     0B7D  083B               	movf	((low ((_water_level_arr| 0+2))+1))^(0+128),w
  2319     0B7E  00F7               	movwf	clcd_print@str+1
  2320     0B7F  30D2               	movlw	210
  2321     0B80  00F8               	movwf	clcd_print@addr
  2322     0B81  160A  118A  25CB  120A  158A  	fcall	_clcd_print
  2323     0B86                     l186:
  2324     0B86  0008               	return
  2325     0B87                     __end_of_water_level_display:
  2326                           
  2327                           	psect	text2
  2328     09A3                     __ptext2:	
  2329 ;; *************** function _washing_program_display *****************
  2330 ;; Defined at:
  2331 ;;		line 155 in file "main.c"
  2332 ;; Parameters:    Size  Location     Type
  2333 ;;  key             1    wreg     unsigned char 
  2334 ;; Auto vars:     Size  Location     Type
  2335 ;;  key             1    7[BANK0 ] unsigned char 
  2336 ;; Return value:  Size  Location     Type
  2337 ;;                  1    wreg      void 
  2338 ;; Registers used:
  2339 ;;		wreg, fsr0l, fsr0h, status,2, status,0, btemp+1, pclath, cstack
  2340 ;; Tracked objects:
  2341 ;;		On entry : 0/0
  2342 ;;		On exit  : 0/0
  2343 ;;		Unchanged: 0/0
  2344 ;; Data sizes:     COMMON   BANK0   BANK1   BANK3   BANK2
  2345 ;;      Params:         0       0       0       0       0
  2346 ;;      Locals:         0       1       0       0       0
  2347 ;;      Temps:          0       2       0       0       0
  2348 ;;      Totals:         0       3       0       0       0
  2349 ;;Total ram usage:        3 bytes
  2350 ;; Hardware stack levels used: 1
  2351 ;; Hardware stack levels required when called: 3
  2352 ;; This function calls:
  2353 ;;		_clcd_print
  2354 ;;		_clcd_putch
  2355 ;;		_clear_screen
  2356 ;; This function is called by:
  2357 ;;		_main
  2358 ;; This function uses a non-reentrant model
  2359 ;;
  2360                           
  2361     09A3                     _washing_program_display:	
  2362                           ;psect for function _washing_program_display
  2363                           
  2364                           
  2365                           ;incstack = 0
  2366                           ; Regs used in _washing_program_display: [wreg-fsr0h+status,2+status,0+btemp+1+pclath+cs
      +                          tack]
  2367                           ;washing_program_display@key stored from wreg
  2368     09A3  1283               	bcf	3,5	;RP0=0, select bank0
  2369     09A4  1303               	bcf	3,6	;RP1=0, select bank0
  2370     09A5  00A7               	movwf	washing_program_display@key
  2371     09A6                     l3974:
  2372                           
  2373                           ;main.c: 155:              clear_screen();;main.c: 156:     };main.c: 157: 
  2374     09A6  3010               	movlw	16
  2375     09A7  066B               	xorwf	_reset_mode,w
  2376     09A8  1D03               	btfss	3,2
  2377     09A9  29AB               	goto	u5511
  2378     09AA  29AC               	goto	u5510
  2379     09AB                     u5511:
  2380     09AB  29B2               	goto	l3980
  2381     09AC                     u5510:
  2382     09AC                     l3976:
  2383                           
  2384                           ;main.c: 158:     clcd_print("Washing Program", (0x80+0));;main.c: 159:     clcd_putch('
      +                          >', (0xC0+0));
  2385     09AC  160A  118A  24ED  120A  158A  	fcall	_clear_screen
  2386     09B1                     l3978:
  2387                           
  2388                           ;main.c: 160: 
  2389     09B1  01FB               	clrf	_program_no
  2390     09B2                     l3980:
  2391                           
  2392                           ;main.c: 162:     if(program_no <= 9)
  2393     09B2  3037               	movlw	55
  2394     09B3  1283               	bcf	3,5	;RP0=0, select bank0
  2395     09B4  1303               	bcf	3,6	;RP1=0, select bank0
  2396     09B5  0627               	xorwf	washing_program_display@key,w
  2397     09B6  1D03               	btfss	3,2
  2398     09B7  29B9               	goto	u5521
  2399     09B8  29BA               	goto	u5520
  2400     09B9                     u5521:
  2401     09B9  29C8               	goto	l3988
  2402     09BA                     u5520:
  2403     09BA                     l3982:
  2404                           
  2405                           ;main.c: 163:     {;main.c: 164:           clcd_print(washing_prog[program_no],(0xC0+2))
      +                          ;
  2406     09BA  3001               	movlw	1
  2407     09BB  07FB               	addwf	_program_no,f
  2408                           
  2409                           ;main.c: 165:           clcd_print(washing_prog[program_no + 1],(0x90+2));
  2410     09BC  300C               	movlw	12
  2411     09BD  067B               	xorwf	_program_no,w
  2412     09BE  1D03               	btfss	3,2
  2413     09BF  29C1               	goto	u5531
  2414     09C0  29C2               	goto	u5530
  2415     09C1                     u5531:
  2416     09C1  29C3               	goto	l3986
  2417     09C2                     u5530:
  2418     09C2                     l3984:
  2419                           
  2420                           ;main.c: 166:           clcd_print(washing_prog[program_no + 2],(0xD0+2));
  2421     09C2  01FB               	clrf	_program_no
  2422     09C3                     l3986:
  2423                           
  2424                           ;main.c: 167:     }
  2425     09C3  160A  118A  24ED  120A  158A  	fcall	_clear_screen
  2426     09C8                     l3988:
  2427                           
  2428                           ;main.c: 170:           clcd_print(washing_prog[program_no],(0xC0+2));
  2429     09C8  3076               	movlw	low (STR_26| (0+32768))
  2430     09C9  00F6               	movwf	clcd_print@str
  2431     09CA  3090               	movlw	high (STR_26| (0+32768))
  2432     09CB  00F7               	movwf	clcd_print@str+1
  2433     09CC  3080               	movlw	128
  2434     09CD  00F8               	movwf	clcd_print@addr
  2435     09CE  160A  118A  25CB  120A  158A  	fcall	_clcd_print
  2436     09D3                     l3990:
  2437                           
  2438                           ;main.c: 171:           clcd_print(washing_prog[program_no + 1],(0x90+2));
  2439     09D3  30C0               	movlw	192
  2440     09D4  00F8               	movwf	clcd_putch@addr
  2441     09D5  303E               	movlw	62
  2442     09D6  160A  118A  250D  120A  158A  	fcall	_clcd_putch
  2443     09DB                     l3992:
  2444                           
  2445                           ;main.c: 174:     }
  2446     09DB  300A               	movlw	10
  2447     09DC  027B               	subwf	_program_no,w
  2448     09DD  1803               	skipnc
  2449     09DE  29E0               	goto	u5541
  2450     09DF  29E1               	goto	u5540
  2451     09E0                     u5541:
  2452     09E0  2A21               	goto	l3996
  2453     09E1                     u5540:
  2454     09E1                     l3994:
  2455                           
  2456                           ;main.c: 175:     else if(program_no == 11);main.c: 176:     {
  2457     09E1  087B               	movf	_program_no,w
  2458     09E2  1283               	bcf	3,5	;RP0=0, select bank0
  2459     09E3  1303               	bcf	3,6	;RP1=0, select bank0
  2460     09E4  00A5               	movwf	??_washing_program_display
  2461     09E5  0725               	addwf	??_washing_program_display,w
  2462     09E6  3EA0               	addlw	(low (_washing_prog| 0))& (0+255)
  2463     09E7  0084               	movwf	4
  2464     09E8  1383               	bcf	3,7	;select IRP bank1
  2465     09E9  0800               	movf	0,w
  2466     09EA  00F6               	movwf	clcd_print@str
  2467     09EB  0A84               	incf	4,f
  2468     09EC  0800               	movf	0,w
  2469     09ED  0384               	decf	4,f
  2470     09EE  00F7               	movwf	clcd_print@str+1
  2471     09EF  30C2               	movlw	194
  2472     09F0  00F8               	movwf	clcd_print@addr
  2473     09F1  160A  118A  25CB  120A  158A  	fcall	_clcd_print
  2474                           
  2475                           ;main.c: 177:           clcd_print(washing_prog[program_no], (0xC0+2));
  2476     09F6  087B               	movf	_program_no,w
  2477     09F7  1283               	bcf	3,5	;RP0=0, select bank0
  2478     09F8  1303               	bcf	3,6	;RP1=0, select bank0
  2479     09F9  00A5               	movwf	??_washing_program_display
  2480     09FA  0725               	addwf	??_washing_program_display,w
  2481     09FB  3EA2               	addlw	(low ((_washing_prog| 0+2)))& (0+255)
  2482     09FC  0084               	movwf	4
  2483     09FD  1383               	bcf	3,7	;select IRP bank1
  2484     09FE  0800               	movf	0,w
  2485     09FF  00F6               	movwf	clcd_print@str
  2486     0A00  0A84               	incf	4,f
  2487     0A01  0800               	movf	0,w
  2488     0A02  0384               	decf	4,f
  2489     0A03  00F7               	movwf	clcd_print@str+1
  2490     0A04  3092               	movlw	146
  2491     0A05  00F8               	movwf	clcd_print@addr
  2492     0A06  160A  118A  25CB  120A  158A  	fcall	_clcd_print
  2493                           
  2494                           ;main.c: 178:           clcd_print(washing_prog[0], (0x90+2));
  2495     0A0B  087B               	movf	_program_no,w
  2496     0A0C  1283               	bcf	3,5	;RP0=0, select bank0
  2497     0A0D  1303               	bcf	3,6	;RP1=0, select bank0
  2498     0A0E  00A5               	movwf	??_washing_program_display
  2499     0A0F  0725               	addwf	??_washing_program_display,w
  2500     0A10  3EA4               	addlw	(low ((_washing_prog| 0+4)))& (0+255)
  2501     0A11  0084               	movwf	4
  2502     0A12  1383               	bcf	3,7	;select IRP bank1
  2503     0A13  0800               	movf	0,w
  2504     0A14  00F6               	movwf	clcd_print@str
  2505     0A15  0A84               	incf	4,f
  2506     0A16  0800               	movf	0,w
  2507     0A17  0384               	decf	4,f
  2508     0A18  00F7               	movwf	clcd_print@str+1
  2509     0A19  30D2               	movlw	210
  2510     0A1A  00F8               	movwf	clcd_print@addr
  2511     0A1B  160A  118A  25CB  120A  158A  	fcall	_clcd_print
  2512                           
  2513                           ;main.c: 179:           clcd_print(washing_prog[1], (0xD0+2));
  2514     0A20  2A94               	goto	l175
  2515     0A21                     l3996:
  2516     0A21  300A               	movlw	10
  2517     0A22  067B               	xorwf	_program_no,w
  2518     0A23  1D03               	btfss	3,2
  2519     0A24  2A26               	goto	u5551
  2520     0A25  2A27               	goto	u5550
  2521     0A26                     u5551:
  2522     0A26  2A5F               	goto	l4000
  2523     0A27                     u5550:
  2524     0A27                     l3998:
  2525                           
  2526                           ;main.c: 181: };main.c: 182: 
  2527     0A27  087B               	movf	_program_no,w
  2528     0A28  1283               	bcf	3,5	;RP0=0, select bank0
  2529     0A29  1303               	bcf	3,6	;RP1=0, select bank0
  2530     0A2A  00A5               	movwf	??_washing_program_display
  2531     0A2B  0725               	addwf	??_washing_program_display,w
  2532     0A2C  3EA0               	addlw	(low (_washing_prog| 0))& (0+255)
  2533     0A2D  0084               	movwf	4
  2534     0A2E  1383               	bcf	3,7	;select IRP bank1
  2535     0A2F  0800               	movf	0,w
  2536     0A30  00F6               	movwf	clcd_print@str
  2537     0A31  0A84               	incf	4,f
  2538     0A32  0800               	movf	0,w
  2539     0A33  0384               	decf	4,f
  2540     0A34  00F7               	movwf	clcd_print@str+1
  2541     0A35  30C2               	movlw	194
  2542     0A36  00F8               	movwf	clcd_print@addr
  2543     0A37  160A  118A  25CB  120A  158A  	fcall	_clcd_print
  2544                           
  2545                           ;main.c: 183: void water_level_display(unsigned char key)
  2546     0A3C  087B               	movf	_program_no,w
  2547     0A3D  1283               	bcf	3,5	;RP0=0, select bank0
  2548     0A3E  1303               	bcf	3,6	;RP1=0, select bank0
  2549     0A3F  00A5               	movwf	??_washing_program_display
  2550     0A40  0725               	addwf	??_washing_program_display,w
  2551     0A41  3EA2               	addlw	(low ((_washing_prog| 0+2)))& (0+255)
  2552     0A42  0084               	movwf	4
  2553     0A43  1383               	bcf	3,7	;select IRP bank1
  2554     0A44  0800               	movf	0,w
  2555     0A45  00F6               	movwf	clcd_print@str
  2556     0A46  0A84               	incf	4,f
  2557     0A47  0800               	movf	0,w
  2558     0A48  0384               	decf	4,f
  2559     0A49  00F7               	movwf	clcd_print@str+1
  2560     0A4A  3092               	movlw	146
  2561     0A4B  00F8               	movwf	clcd_print@addr
  2562     0A4C  160A  118A  25CB  120A  158A  	fcall	_clcd_print
  2563                           
  2564                           ;main.c: 184: {
  2565     0A51  1683               	bsf	3,5	;RP0=1, select bank1
  2566     0A52  1303               	bcf	3,6	;RP1=0, select bank1
  2567     0A53  0820               	movf	_washing_prog^(0+128),w
  2568     0A54  00F6               	movwf	clcd_print@str
  2569     0A55  0821               	movf	(_washing_prog+1)^(0+128),w
  2570     0A56  00F7               	movwf	clcd_print@str+1
  2571     0A57  30D2               	movlw	210
  2572     0A58  00F8               	movwf	clcd_print@addr
  2573     0A59  160A  118A  25CB  120A  158A  	fcall	_clcd_print
  2574                           
  2575                           ;main.c: 186:     {
  2576     0A5E  2A94               	goto	l175
  2577     0A5F                     l4000:
  2578     0A5F  300B               	movlw	11
  2579     0A60  067B               	xorwf	_program_no,w
  2580     0A61  1D03               	btfss	3,2
  2581     0A62  2A64               	goto	u5561
  2582     0A63  2A65               	goto	u5560
  2583     0A64                     u5561:
  2584     0A64  2A94               	goto	l175
  2585     0A65                     u5560:
  2586     0A65                     l4002:
  2587                           
  2588                           ;main.c: 188:         clear_screen();;main.c: 189:     }
  2589     0A65  087B               	movf	_program_no,w
  2590     0A66  1283               	bcf	3,5	;RP0=0, select bank0
  2591     0A67  1303               	bcf	3,6	;RP1=0, select bank0
  2592     0A68  00A5               	movwf	??_washing_program_display
  2593     0A69  0725               	addwf	??_washing_program_display,w
  2594     0A6A  3EA0               	addlw	(low (_washing_prog| 0))& (0+255)
  2595     0A6B  0084               	movwf	4
  2596     0A6C  1383               	bcf	3,7	;select IRP bank1
  2597     0A6D  0800               	movf	0,w
  2598     0A6E  00F6               	movwf	clcd_print@str
  2599     0A6F  0A84               	incf	4,f
  2600     0A70  0800               	movf	0,w
  2601     0A71  0384               	decf	4,f
  2602     0A72  00F7               	movwf	clcd_print@str+1
  2603     0A73  30C2               	movlw	194
  2604     0A74  00F8               	movwf	clcd_print@addr
  2605     0A75  160A  118A  25CB  120A  158A  	fcall	_clcd_print
  2606                           
  2607                           ;main.c: 190:     if(key == 0x37)
  2608     0A7A  1683               	bsf	3,5	;RP0=1, select bank1
  2609     0A7B  1303               	bcf	3,6	;RP1=0, select bank1
  2610     0A7C  0820               	movf	_washing_prog^(0+128),w
  2611     0A7D  00F6               	movwf	clcd_print@str
  2612     0A7E  0821               	movf	(_washing_prog+1)^(0+128),w
  2613     0A7F  00F7               	movwf	clcd_print@str+1
  2614     0A80  3092               	movlw	146
  2615     0A81  00F8               	movwf	clcd_print@addr
  2616     0A82  160A  118A  25CB  120A  158A  	fcall	_clcd_print
  2617                           
  2618                           ;main.c: 191:     {
  2619     0A87  1683               	bsf	3,5	;RP0=1, select bank1
  2620     0A88  1303               	bcf	3,6	;RP1=0, select bank1
  2621     0A89  0822               	movf	(low ((_washing_prog| 0+2)))^(0+128),w
  2622     0A8A  00F6               	movwf	clcd_print@str
  2623     0A8B  0823               	movf	((low ((_washing_prog| 0+2))+1))^(0+128),w
  2624     0A8C  00F7               	movwf	clcd_print@str+1
  2625     0A8D  30D2               	movlw	210
  2626     0A8E  00F8               	movwf	clcd_print@addr
  2627     0A8F  160A  118A  25CB  120A  158A  	fcall	_clcd_print
  2628     0A94                     l175:
  2629     0A94  0008               	return
  2630     0A95                     __end_of_washing_program_display:
  2631                           
  2632                           	psect	text3
  2633     0B87                     __ptext3:	
  2634 ;; *************** function _set_time_for_program *****************
  2635 ;; Defined at:
  2636 ;;		line 235 in file "main.c"
  2637 ;; Parameters:    Size  Location     Type
  2638 ;;		None
  2639 ;; Auto vars:     Size  Location     Type
  2640 ;;		None
  2641 ;; Return value:  Size  Location     Type
  2642 ;;                  1    wreg      void 
  2643 ;; Registers used:
  2644 ;;		wreg, fsr0l, fsr0h, status,2, status,0
  2645 ;; Tracked objects:
  2646 ;;		On entry : 0/0
  2647 ;;		On exit  : 0/0
  2648 ;;		Unchanged: 0/0
  2649 ;; Data sizes:     COMMON   BANK0   BANK1   BANK3   BANK2
  2650 ;;      Params:         0       0       0       0       0
  2651 ;;      Locals:         0       0       0       0       0
  2652 ;;      Temps:          0       0       0       0       0
  2653 ;;      Totals:         0       0       0       0       0
  2654 ;;Total ram usage:        0 bytes
  2655 ;; Hardware stack levels used: 1
  2656 ;; Hardware stack levels required when called: 1
  2657 ;; This function calls:
  2658 ;;		Nothing
  2659 ;; This function is called by:
  2660 ;;		_main
  2661 ;; This function uses a non-reentrant model
  2662 ;;
  2663                           
  2664     0B87                     _set_time_for_program:	
  2665                           ;psect for function _set_time_for_program
  2666                           
  2667     0B87                     l3500:	
  2668                           ;incstack = 0
  2669                           ; Regs used in _set_time_for_program: [wreg-fsr0h+status,2+status,0]
  2670                           
  2671                           
  2672                           ;main.c: 237:                 sec = 41;
  2673     0B87  2C5B               	goto	l3550
  2674     0B88                     l192:	
  2675                           ;main.c: 241:              case 4:;main.c: 243:                 min = 0;
  2676                           
  2677                           
  2678                           ;main.c: 244:         }
  2679     0B88  3021               	movlw	33
  2680     0B89  1283               	bcf	3,5	;RP0=0, select bank0
  2681     0B8A  1303               	bcf	3,6	;RP1=0, select bank0
  2682     0B8B  00EA               	movwf	_sec
  2683     0B8C                     l3502:
  2684                           
  2685                           ;main.c: 245:         break;
  2686     0B8C  01E9               	clrf	_min
  2687                           
  2688                           ;main.c: 246:      case 1:
  2689     0B8D  2C81               	goto	l245
  2690     0B8E                     l195:	
  2691                           ;main.c: 248:          {
  2692                           
  2693                           
  2694                           ;main.c: 249: 
  2695     0B8E  3029               	movlw	41
  2696     0B8F  1283               	bcf	3,5	;RP0=0, select bank0
  2697     0B90  1303               	bcf	3,6	;RP1=0, select bank0
  2698     0B91  00EA               	movwf	_sec
  2699     0B92  2B8C               	goto	l3502
  2700     0B93                     l197:	
  2701                           ;main.c: 253:      case 0:
  2702                           
  2703                           
  2704                           ;main.c: 254:      case 2:
  2705     0B93  302D               	movlw	45
  2706     0B94  1283               	bcf	3,5	;RP0=0, select bank0
  2707     0B95  1303               	bcf	3,6	;RP1=0, select bank0
  2708     0B96  00EA               	movwf	_sec
  2709     0B97  2B8C               	goto	l3502
  2710     0B98                     l3508:
  2711     0B98  087A               	movf	_water_level_index,w
  2712                           
  2713                           ; Switch size 1, requested type "simple"
  2714                           ; Number of cases is 5, Range of values is 0 to 4
  2715                           ; switch strategies available:
  2716                           ; Name         Instructions Cycles
  2717                           ; simple_byte           16     9 (average)
  2718                           ; direct_byte           23     8 (fixed)
  2719                           ; jumptable            260     6 (fixed)
  2720                           ;	Chosen strategy is simple_byte
  2721     0B99  3A00               	xorlw	0	; case 0
  2722     0B9A  1903               	skipnz
  2723     0B9B  2B8E               	goto	l195
  2724     0B9C  3A01               	xorlw	1	; case 1
  2725     0B9D  1903               	skipnz
  2726     0B9E  2B88               	goto	l192
  2727     0B9F  3A03               	xorlw	3	; case 2
  2728     0BA0  1903               	skipnz
  2729     0BA1  2B8E               	goto	l195
  2730     0BA2  3A01               	xorlw	1	; case 3
  2731     0BA3  1903               	skipnz
  2732     0BA4  2B93               	goto	l197
  2733     0BA5  3A07               	xorlw	7	; case 4
  2734     0BA6  1903               	skipnz
  2735     0BA7  2B93               	goto	l197
  2736     0BA8  2C81               	goto	l245
  2737     0BA9                     l201:	
  2738                           ;main.c: 260:         sec = 57;;main.c: 262:          }
  2739                           
  2740                           
  2741                           ;main.c: 263:          break;
  2742     0BA9  302B               	movlw	43
  2743     0BAA  1283               	bcf	3,5	;RP0=0, select bank0
  2744     0BAB  1303               	bcf	3,6	;RP1=0, select bank0
  2745     0BAC  00EA               	movwf	_sec
  2746     0BAD                     l3510:
  2747                           
  2748                           ;main.c: 264:         case 2:
  2749     0BAD  01E9               	clrf	_min
  2750     0BAE                     l3512:
  2751                           
  2752                           ;main.c: 267: 
  2753     0BAE  3032               	movlw	50
  2754     0BAF  1283               	bcf	3,5	;RP0=0, select bank0
  2755     0BB0  1303               	bcf	3,6	;RP1=0, select bank0
  2756     0BB1  00EA               	movwf	_sec
  2757                           
  2758                           ;main.c: 268:                 case 1:
  2759     0BB2  01E9               	clrf	_min
  2760                           
  2761                           ;main.c: 269:                 case 0:
  2762     0BB3  2C81               	goto	l245
  2763     0BB4                     l206:	
  2764                           ;main.c: 271:                     sec = 26;
  2765                           
  2766                           
  2767                           ;main.c: 272:                     min = 0;
  2768     0BB4  3039               	movlw	57
  2769     0BB5  1283               	bcf	3,5	;RP0=0, select bank0
  2770     0BB6  1303               	bcf	3,6	;RP1=0, select bank0
  2771     0BB7  00EA               	movwf	_sec
  2772     0BB8  2B8C               	goto	l3502
  2773     0BB9                     l3516:
  2774     0BB9  087A               	movf	_water_level_index,w
  2775                           
  2776                           ; Switch size 1, requested type "simple"
  2777                           ; Number of cases is 5, Range of values is 0 to 4
  2778                           ; switch strategies available:
  2779                           ; Name         Instructions Cycles
  2780                           ; simple_byte           16     9 (average)
  2781                           ; direct_byte           23     8 (fixed)
  2782                           ; jumptable            260     6 (fixed)
  2783                           ;	Chosen strategy is simple_byte
  2784     0BBA  3A00               	xorlw	0	; case 0
  2785     0BBB  1903               	skipnz
  2786     0BBC  2BAE               	goto	l3512
  2787     0BBD  3A01               	xorlw	1	; case 1
  2788     0BBE  1903               	skipnz
  2789     0BBF  2BA9               	goto	l201
  2790     0BC0  3A03               	xorlw	3	; case 2
  2791     0BC1  1903               	skipnz
  2792     0BC2  2BAE               	goto	l3512
  2793     0BC3  3A01               	xorlw	1	; case 3
  2794     0BC4  1903               	skipnz
  2795     0BC5  2BB4               	goto	l206
  2796     0BC6  3A07               	xorlw	7	; case 4
  2797     0BC7  1903               	skipnz
  2798     0BC8  2BB4               	goto	l206
  2799     0BC9  2C81               	goto	l245
  2800     0BCA                     l211:	
  2801                           ;main.c: 282:             min =1;
  2802                           
  2803                           
  2804                           ;main.c: 283:             break;
  2805     0BCA  301A               	movlw	26
  2806     0BCB  1283               	bcf	3,5	;RP0=0, select bank0
  2807     0BCC  1303               	bcf	3,6	;RP1=0, select bank0
  2808     0BCD  00EA               	movwf	_sec
  2809     0BCE  2B8C               	goto	l3502
  2810     0BCF                     l214:	
  2811                           ;main.c: 287:             min = 1;
  2812                           
  2813                           
  2814                           ;main.c: 288:         case 5:
  2815     0BCF  301F               	movlw	31
  2816     0BD0  1283               	bcf	3,5	;RP0=0, select bank0
  2817     0BD1  1303               	bcf	3,6	;RP1=0, select bank0
  2818     0BD2  00EA               	movwf	_sec
  2819     0BD3  2B8C               	goto	l3502
  2820     0BD4                     l3522:
  2821     0BD4  087A               	movf	_water_level_index,w
  2822                           
  2823                           ; Switch size 1, requested type "simple"
  2824                           ; Number of cases is 5, Range of values is 0 to 4
  2825                           ; switch strategies available:
  2826                           ; Name         Instructions Cycles
  2827                           ; simple_byte           16     9 (average)
  2828                           ; direct_byte           23     8 (fixed)
  2829                           ; jumptable            260     6 (fixed)
  2830                           ;	Chosen strategy is simple_byte
  2831     0BD5  3A00               	xorlw	0	; case 0
  2832     0BD6  1903               	skipnz
  2833     0BD7  2BCA               	goto	l211
  2834     0BD8  3A01               	xorlw	1	; case 1
  2835     0BD9  1903               	skipnz
  2836     0BDA  2BCA               	goto	l211
  2837     0BDB  3A03               	xorlw	3	; case 2
  2838     0BDC  1903               	skipnz
  2839     0BDD  2BCA               	goto	l211
  2840     0BDE  3A01               	xorlw	1	; case 3
  2841     0BDF  1903               	skipnz
  2842     0BE0  2BCF               	goto	l214
  2843     0BE1  3A07               	xorlw	7	; case 4
  2844     0BE2  1903               	skipnz
  2845     0BE3  2BCF               	goto	l214
  2846     0BE4  2C81               	goto	l245
  2847     0BE5                     l215:	
  2848                           ;main.c: 292:         case 6:
  2849                           
  2850                           
  2851                           ;main.c: 293:             sec = 29;
  2852     0BE5  3010               	movlw	16
  2853     0BE6  1283               	bcf	3,5	;RP0=0, select bank0
  2854     0BE7  1303               	bcf	3,6	;RP1=0, select bank0
  2855     0BE8  00EA               	movwf	_sec
  2856                           
  2857                           ;main.c: 294:             break;
  2858     0BE9  3001               	movlw	1
  2859     0BEA  00E9               	movwf	_min
  2860                           
  2861                           ;main.c: 295:         case 7:
  2862     0BEB  2C81               	goto	l245
  2863     0BEC                     l216:	
  2864                           ;main.c: 296:             switch(water_level_index)
  2865                           
  2866                           
  2867                           ;main.c: 298: 
  2868     0BEC  3024               	movlw	36
  2869     0BED  1283               	bcf	3,5	;RP0=0, select bank0
  2870     0BEE  1303               	bcf	3,6	;RP1=0, select bank0
  2871     0BEF  00EA               	movwf	_sec
  2872                           
  2873                           ;main.c: 299:                 case 1:
  2874     0BF0  3001               	movlw	1
  2875     0BF1  00E9               	movwf	_min
  2876     0BF2                     l217:	
  2877                           ;main.c: 300:                 sec = 46;
  2878                           
  2879                           
  2880                           ;main.c: 301:                 min = 0;
  2881     0BF2  301C               	movlw	28
  2882     0BF3  1283               	bcf	3,5	;RP0=0, select bank0
  2883     0BF4  1303               	bcf	3,6	;RP1=0, select bank0
  2884     0BF5  00EA               	movwf	_sec
  2885     0BF6  2B8C               	goto	l3502
  2886     0BF7                     l218:	
  2887                           ;main.c: 304:                     sec = 53;
  2888                           
  2889                           
  2890                           ;main.c: 305:                     min = 0;
  2891     0BF7  301D               	movlw	29
  2892     0BF8  1283               	bcf	3,5	;RP0=0, select bank0
  2893     0BF9  1303               	bcf	3,6	;RP1=0, select bank0
  2894     0BFA  00EA               	movwf	_sec
  2895                           
  2896                           ;main.c: 306:                     break;
  2897     0BFB  2C81               	goto	l245
  2898     0BFC                     l221:	
  2899                           ;main.c: 309:                     sec = 60;;main.c: 311:             }
  2900                           
  2901                           
  2902                           ;main.c: 312:             break;
  2903     0BFC  302E               	movlw	46
  2904     0BFD  1283               	bcf	3,5	;RP0=0, select bank0
  2905     0BFE  1303               	bcf	3,6	;RP1=0, select bank0
  2906     0BFF  00EA               	movwf	_sec
  2907     0C00                     l3526:
  2908                           
  2909                           ;main.c: 313:         case 8:
  2910     0C00  01E9               	clrf	_min
  2911     0C01                     l3528:
  2912                           
  2913                           ;main.c: 316: 
  2914     0C01  3035               	movlw	53
  2915     0C02  1283               	bcf	3,5	;RP0=0, select bank0
  2916     0C03  1303               	bcf	3,6	;RP1=0, select bank0
  2917     0C04  00EA               	movwf	_sec
  2918                           
  2919                           ;main.c: 317:                 case 1:
  2920     0C05  01E9               	clrf	_min
  2921                           
  2922                           ;main.c: 318:                     sec = 18;
  2923     0C06  2C81               	goto	l245
  2924     0C07                     l226:	
  2925                           ;main.c: 320:                 case 0:
  2926                           
  2927                           
  2928                           ;main.c: 321:                 case 2:
  2929     0C07  303C               	movlw	60
  2930     0C08  1283               	bcf	3,5	;RP0=0, select bank0
  2931     0C09  1303               	bcf	3,6	;RP1=0, select bank0
  2932     0C0A  00EA               	movwf	_sec
  2933     0C0B  2B8C               	goto	l3502
  2934     0C0C                     l3532:
  2935     0C0C  087A               	movf	_water_level_index,w
  2936                           
  2937                           ; Switch size 1, requested type "simple"
  2938                           ; Number of cases is 5, Range of values is 0 to 4
  2939                           ; switch strategies available:
  2940                           ; Name         Instructions Cycles
  2941                           ; simple_byte           16     9 (average)
  2942                           ; direct_byte           23     8 (fixed)
  2943                           ; jumptable            260     6 (fixed)
  2944                           ;	Chosen strategy is simple_byte
  2945     0C0D  3A00               	xorlw	0	; case 0
  2946     0C0E  1903               	skipnz
  2947     0C0F  2C01               	goto	l3528
  2948     0C10  3A01               	xorlw	1	; case 1
  2949     0C11  1903               	skipnz
  2950     0C12  2BFC               	goto	l221
  2951     0C13  3A03               	xorlw	3	; case 2
  2952     0C14  1903               	skipnz
  2953     0C15  2C01               	goto	l3528
  2954     0C16  3A01               	xorlw	1	; case 3
  2955     0C17  1903               	skipnz
  2956     0C18  2C07               	goto	l226
  2957     0C19  3A07               	xorlw	7	; case 4
  2958     0C1A  1903               	skipnz
  2959     0C1B  2C07               	goto	l226
  2960     0C1C  2C81               	goto	l245
  2961     0C1D                     l229:	
  2962                           ;main.c: 327:             break;;main.c: 329:             sec = 6;
  2963                           
  2964                           
  2965                           ;main.c: 330:             break;
  2966     0C1D  3012               	movlw	18
  2967     0C1E  1283               	bcf	3,5	;RP0=0, select bank0
  2968     0C1F  1303               	bcf	3,6	;RP1=0, select bank0
  2969     0C20  00EA               	movwf	_sec
  2970     0C21                     l3534:
  2971                           
  2972                           ;main.c: 331:         case 10:
  2973     0C21  01E9               	clrf	_min
  2974     0C22  2C23               	goto	l3536
  2975     0C23                     l232:	
  2976                           ;main.c: 334:             {
  2977                           
  2978     0C23                     l3536:
  2979                           
  2980                           ;main.c: 336:                 case 1:
  2981     0C23  3014               	movlw	20
  2982     0C24  1283               	bcf	3,5	;RP0=0, select bank0
  2983     0C25  1303               	bcf	3,6	;RP1=0, select bank0
  2984     0C26  00EA               	movwf	_sec
  2985                           
  2986                           ;main.c: 337:                     sec = 16;
  2987     0C27  01E9               	clrf	_min
  2988                           
  2989                           ;main.c: 338:                     min = 0;
  2990     0C28  2C81               	goto	l245
  2991     0C29                     l3538:
  2992     0C29  087A               	movf	_water_level_index,w
  2993                           
  2994                           ; Switch size 1, requested type "simple"
  2995                           ; Number of cases is 5, Range of values is 0 to 4
  2996                           ; switch strategies available:
  2997                           ; Name         Instructions Cycles
  2998                           ; simple_byte           16     9 (average)
  2999                           ; direct_byte           23     8 (fixed)
  3000                           ; jumptable            260     6 (fixed)
  3001                           ;	Chosen strategy is simple_byte
  3002     0C2A  3A00               	xorlw	0	; case 0
  3003     0C2B  1903               	skipnz
  3004     0C2C  2C23               	goto	l232
  3005     0C2D  3A01               	xorlw	1	; case 1
  3006     0C2E  1903               	skipnz
  3007     0C2F  2C1D               	goto	l229
  3008     0C30  3A03               	xorlw	3	; case 2
  3009     0C31  1903               	skipnz
  3010     0C32  2C23               	goto	l3536
  3011     0C33  3A01               	xorlw	1	; case 3
  3012     0C34  1903               	skipnz
  3013     0C35  2C23               	goto	l3536
  3014     0C36  3A07               	xorlw	7	; case 4
  3015     0C37  1903               	skipnz
  3016     0C38  2C23               	goto	l3536
  3017     0C39  2C81               	goto	l245
  3018     0C3A                     l235:	
  3019                           ;main.c: 340:                 case 2:
  3020                           
  3021                           
  3022                           ;main.c: 341:                     sec = 21;
  3023     0C3A  3006               	movlw	6
  3024     0C3B  1283               	bcf	3,5	;RP0=0, select bank0
  3025     0C3C  1303               	bcf	3,6	;RP1=0, select bank0
  3026     0C3D  00EA               	movwf	_sec
  3027                           
  3028                           ;main.c: 342:                     min = 0;
  3029     0C3E  2C81               	goto	l245
  3030     0C3F                     l239:	
  3031                           ;main.c: 346:                     sec = 26;;main.c: 348:             }
  3032                           
  3033                           
  3034                           ;main.c: 349:             break;
  3035     0C3F  3010               	movlw	16
  3036     0C40  1283               	bcf	3,5	;RP0=0, select bank0
  3037     0C41  1303               	bcf	3,6	;RP1=0, select bank0
  3038     0C42  00EA               	movwf	_sec
  3039     0C43                     l3540:
  3040                           
  3041                           ;main.c: 350:       }
  3042     0C43  01E9               	clrf	_min
  3043     0C44                     l3542:
  3044                           
  3045                           ;main.c: 353: 
  3046     0C44  3015               	movlw	21
  3047     0C45  1283               	bcf	3,5	;RP0=0, select bank0
  3048     0C46  1303               	bcf	3,6	;RP1=0, select bank0
  3049     0C47  00EA               	movwf	_sec
  3050                           
  3051                           ;main.c: 354: void door_status_check(void)
  3052     0C48  01E9               	clrf	_min
  3053                           
  3054                           ;main.c: 355: {
  3055     0C49  2C81               	goto	l245
  3056     0C4A                     l3546:
  3057     0C4A  087A               	movf	_water_level_index,w
  3058                           
  3059                           ; Switch size 1, requested type "simple"
  3060                           ; Number of cases is 5, Range of values is 0 to 4
  3061                           ; switch strategies available:
  3062                           ; Name         Instructions Cycles
  3063                           ; simple_byte           16     9 (average)
  3064                           ; direct_byte           23     8 (fixed)
  3065                           ; jumptable            260     6 (fixed)
  3066                           ;	Chosen strategy is simple_byte
  3067     0C4B  3A00               	xorlw	0	; case 0
  3068     0C4C  1903               	skipnz
  3069     0C4D  2C44               	goto	l3542
  3070     0C4E  3A01               	xorlw	1	; case 1
  3071     0C4F  1903               	skipnz
  3072     0C50  2C3F               	goto	l239
  3073     0C51  3A03               	xorlw	3	; case 2
  3074     0C52  1903               	skipnz
  3075     0C53  2C44               	goto	l3542
  3076     0C54  3A01               	xorlw	1	; case 3
  3077     0C55  1903               	skipnz
  3078     0C56  2BCA               	goto	l211
  3079     0C57  3A07               	xorlw	7	; case 4
  3080     0C58  1903               	skipnz
  3081     0C59  2BCA               	goto	l211
  3082     0C5A  2C81               	goto	l245
  3083     0C5B                     l3550:
  3084     0C5B  087B               	movf	_program_no,w
  3085                           
  3086                           ; Switch size 1, requested type "simple"
  3087                           ; Number of cases is 12, Range of values is 0 to 11
  3088                           ; switch strategies available:
  3089                           ; Name         Instructions Cycles
  3090                           ; simple_byte           37    19 (average)
  3091                           ; direct_byte           44     8 (fixed)
  3092                           ; jumptable            260     6 (fixed)
  3093                           ;	Chosen strategy is simple_byte
  3094     0C5C  3A00               	xorlw	0	; case 0
  3095     0C5D  1903               	skipnz
  3096     0C5E  2B98               	goto	l3508
  3097     0C5F  3A01               	xorlw	1	; case 1
  3098     0C60  1903               	skipnz
  3099     0C61  2BB9               	goto	l3516
  3100     0C62  3A03               	xorlw	3	; case 2
  3101     0C63  1903               	skipnz
  3102     0C64  2BD4               	goto	l3522
  3103     0C65  3A01               	xorlw	1	; case 3
  3104     0C66  1903               	skipnz
  3105     0C67  2BE5               	goto	l215
  3106     0C68  3A07               	xorlw	7	; case 4
  3107     0C69  1903               	skipnz
  3108     0C6A  2BEC               	goto	l216
  3109     0C6B  3A01               	xorlw	1	; case 5
  3110     0C6C  1903               	skipnz
  3111     0C6D  2BF2               	goto	l217
  3112     0C6E  3A03               	xorlw	3	; case 6
  3113     0C6F  1903               	skipnz
  3114     0C70  2BF7               	goto	l218
  3115     0C71  3A01               	xorlw	1	; case 7
  3116     0C72  1903               	skipnz
  3117     0C73  2C0C               	goto	l3532
  3118     0C74  3A0F               	xorlw	15	; case 8
  3119     0C75  1903               	skipnz
  3120     0C76  2C29               	goto	l3538
  3121     0C77  3A01               	xorlw	1	; case 9
  3122     0C78  1903               	skipnz
  3123     0C79  2C3A               	goto	l235
  3124     0C7A  3A03               	xorlw	3	; case 10
  3125     0C7B  1903               	skipnz
  3126     0C7C  2C4A               	goto	l3546
  3127     0C7D  3A01               	xorlw	1	; case 11
  3128     0C7E  1903               	skipnz
  3129     0C7F  2C4A               	goto	l3546
  3130     0C80  2C81               	goto	l245
  3131     0C81                     l245:
  3132     0C81  0008               	return
  3133     0C82                     __end_of_set_time_for_program:
  3134                           
  3135                           	psect	text4
  3136     0043                     __ptext4:	
  3137 ;; *************** function _run_program *****************
  3138 ;; Defined at:
  3139 ;;		line 397 in file "main.c"
  3140 ;; Parameters:    Size  Location     Type
  3141 ;;  key             1    wreg     unsigned char 
  3142 ;; Auto vars:     Size  Location     Type
  3143 ;;  key             1   63[BANK0 ] unsigned char 
  3144 ;; Return value:  Size  Location     Type
  3145 ;;                  1    wreg      void 
  3146 ;; Registers used:
  3147 ;;		wreg, fsr0l, fsr0h, status,2, status,0, btemp+1, pclath, cstack
  3148 ;; Tracked objects:
  3149 ;;		On entry : 0/0
  3150 ;;		On exit  : 0/0
  3151 ;;		Unchanged: 0/0
  3152 ;; Data sizes:     COMMON   BANK0   BANK1   BANK3   BANK2
  3153 ;;      Params:         0       0       0       0       0
  3154 ;;      Locals:         0       1       0       0       0
  3155 ;;      Temps:          0       7       0       0       0
  3156 ;;      Totals:         0       8       0       0       0
  3157 ;;Total ram usage:        8 bytes
  3158 ;; Hardware stack levels used: 1
  3159 ;; Hardware stack levels required when called: 4
  3160 ;; This function calls:
  3161 ;;		___awdiv
  3162 ;;		___awmod
  3163 ;;		___flge
  3164 ;;		___flmul
  3165 ;;		___flsub
  3166 ;;		___fltol
  3167 ;;		___wmul
  3168 ;;		___xxtofl
  3169 ;;		_clcd_print
  3170 ;;		_clcd_putch
  3171 ;;		_clear_screen
  3172 ;;		_door_status_check
  3173 ;; This function is called by:
  3174 ;;		_main
  3175 ;; This function uses a non-reentrant model
  3176 ;;
  3177                           
  3178     0043                     _run_program:	
  3179                           ;psect for function _run_program
  3180                           
  3181                           
  3182                           ;incstack = 0
  3183                           ; Regs used in _run_program: [wreg-fsr0h+status,2+status,0+btemp+1+pclath+cstack]
  3184                           ;run_program@key stored from wreg
  3185     0043  1283               	bcf	3,5	;RP0=0, select bank0
  3186     0044  1303               	bcf	3,6	;RP1=0, select bank0
  3187     0045  00DF               	movwf	run_program@key
  3188     0046                     l4034:
  3189                           
  3190                           ;main.c: 397:             clcd_putch((min/10)+'0',(0xC0+6));;main.c: 398:             cl
      +                          cd_putch((min%10)+'0',(0xC0+7));;main.c: 399:             clcd_putch(':',(0xC0+8));
  3191     0046  160A  118A  267B  120A  118A  	fcall	_door_status_check
  3192     004B                     l4036:
  3193                           
  3194                           ;main.c: 400:             clcd_putch((sec/10)+'0',(0xC0+9));;main.c: 401:             cl
      +                          cd_putch((sec%10)+'0',(0xC0+10));
  3195     004B  3012               	movlw	18
  3196     004C  1283               	bcf	3,5	;RP0=0, select bank0
  3197     004D  1303               	bcf	3,6	;RP1=0, select bank0
  3198     004E  066B               	xorwf	_reset_mode,w
  3199     004F  1D03               	btfss	3,2
  3200     0050  2852               	goto	u5631
  3201     0051  2853               	goto	u5630
  3202     0052                     u5631:
  3203     0052  29ED               	goto	l4078
  3204     0053                     u5630:
  3205     0053                     l4038:
  3206                           
  3207                           ;main.c: 402:             clcd_print("(MM:SS)",(0x90+5));;main.c: 403:             _dela
      +                          y((unsigned long)((2000)*(20000000/4000.0)));
  3208     0053  160A  118A  24ED  120A  118A  	fcall	_clear_screen
  3209     0058                     l4040:
  3210                           
  3211                           ;main.c: 404: 
  3212     0058  304D               	movlw	low (STR_33| (0+32768))
  3213     0059  00F6               	movwf	clcd_print@str
  3214     005A  3091               	movlw	high (STR_33| (0+32768))
  3215     005B  00F7               	movwf	clcd_print@str+1
  3216     005C  3080               	movlw	128
  3217     005D  00F8               	movwf	clcd_print@addr
  3218     005E  160A  118A  25CB  120A  118A  	fcall	_clcd_print
  3219     0063                     l4042:
  3220                           
  3221                           ;main.c: 405: 
  3222     0063  087B               	movf	_program_no,w
  3223     0064  1283               	bcf	3,5	;RP0=0, select bank0
  3224     0065  1303               	bcf	3,6	;RP1=0, select bank0
  3225     0066  00D8               	movwf	??_run_program
  3226     0067  0758               	addwf	??_run_program,w
  3227     0068  3EA0               	addlw	(low (_washing_prog| 0))& (0+255)
  3228     0069  0084               	movwf	4
  3229     006A  1383               	bcf	3,7	;select IRP bank1
  3230     006B  0800               	movf	0,w
  3231     006C  00F6               	movwf	clcd_print@str
  3232     006D  0A84               	incf	4,f
  3233     006E  0800               	movf	0,w
  3234     006F  0384               	decf	4,f
  3235     0070  00F7               	movwf	clcd_print@str+1
  3236     0071  3086               	movlw	134
  3237     0072  00F8               	movwf	clcd_print@addr
  3238     0073  160A  118A  25CB  120A  118A  	fcall	_clcd_print
  3239     0078                     l4044:
  3240                           
  3241                           ;main.c: 406:             clear_screen();
  3242     0078  3068               	movlw	low (STR_34| (0+32768))
  3243     0079  00F6               	movwf	clcd_print@str
  3244     007A  3091               	movlw	high (STR_34| (0+32768))
  3245     007B  00F7               	movwf	clcd_print@str+1
  3246     007C  30C0               	movlw	192
  3247     007D  00F8               	movwf	clcd_print@addr
  3248     007E  160A  118A  25CB  120A  118A  	fcall	_clcd_print
  3249     0083                     l4046:
  3250                           
  3251                           ;main.c: 409:             clcd_print("5-START  6-PAUSE", (0xD0+0));
  3252     0083  30C6               	movlw	198
  3253     0084  00F8               	movwf	clcd_putch@addr
  3254     0085  300A               	movlw	10
  3255     0086  00F2               	movwf	___awdiv@divisor
  3256     0087  3000               	movlw	0
  3257     0088  00F3               	movwf	___awdiv@divisor+1
  3258     0089  1283               	bcf	3,5	;RP0=0, select bank0
  3259     008A  1303               	bcf	3,6	;RP1=0, select bank0
  3260     008B  0869               	movf	_min,w
  3261     008C  00D8               	movwf	??_run_program
  3262     008D  01D9               	clrf	??_run_program+1
  3263     008E  0858               	movf	??_run_program,w
  3264     008F  00F4               	movwf	___awdiv@dividend
  3265     0090  0859               	movf	??_run_program+1,w
  3266     0091  00F5               	movwf	___awdiv@dividend+1
  3267     0092  120A  158A  2005  120A  118A  	fcall	___awdiv
  3268     0097  0872               	movf	?___awdiv,w
  3269     0098  3E30               	addlw	48
  3270     0099  160A  118A  250D  120A  118A  	fcall	_clcd_putch
  3271     009E                     l4048:
  3272                           
  3273                           ;main.c: 410: 
  3274     009E  30C7               	movlw	199
  3275     009F  00F8               	movwf	clcd_putch@addr
  3276     00A0  300A               	movlw	10
  3277     00A1  00F2               	movwf	___awmod@divisor
  3278     00A2  3000               	movlw	0
  3279     00A3  00F3               	movwf	___awmod@divisor+1
  3280     00A4  1283               	bcf	3,5	;RP0=0, select bank0
  3281     00A5  1303               	bcf	3,6	;RP1=0, select bank0
  3282     00A6  0869               	movf	_min,w
  3283     00A7  00D8               	movwf	??_run_program
  3284     00A8  01D9               	clrf	??_run_program+1
  3285     00A9  0858               	movf	??_run_program,w
  3286     00AA  00F4               	movwf	___awmod@dividend
  3287     00AB  0859               	movf	??_run_program+1,w
  3288     00AC  00F5               	movwf	___awmod@dividend+1
  3289     00AD  160A  118A  26D1  120A  118A  	fcall	___awmod
  3290     00B2  0872               	movf	?___awmod,w
  3291     00B3  3E30               	addlw	48
  3292     00B4  160A  118A  250D  120A  118A  	fcall	_clcd_putch
  3293     00B9                     l4050:
  3294                           
  3295                           ;main.c: 411: 
  3296     00B9  30C8               	movlw	200
  3297     00BA  00F8               	movwf	clcd_putch@addr
  3298     00BB  303A               	movlw	58
  3299     00BC  160A  118A  250D  120A  118A  	fcall	_clcd_putch
  3300     00C1                     l4052:
  3301                           
  3302                           ;main.c: 412:             time = total_time = (min*60+sec);
  3303     00C1  30C9               	movlw	201
  3304     00C2  00F8               	movwf	clcd_putch@addr
  3305     00C3  300A               	movlw	10
  3306     00C4  00F2               	movwf	___awdiv@divisor
  3307     00C5  3000               	movlw	0
  3308     00C6  00F3               	movwf	___awdiv@divisor+1
  3309     00C7  1283               	bcf	3,5	;RP0=0, select bank0
  3310     00C8  1303               	bcf	3,6	;RP1=0, select bank0
  3311     00C9  086A               	movf	_sec,w
  3312     00CA  00D8               	movwf	??_run_program
  3313     00CB  01D9               	clrf	??_run_program+1
  3314     00CC  0858               	movf	??_run_program,w
  3315     00CD  00F4               	movwf	___awdiv@dividend
  3316     00CE  0859               	movf	??_run_program+1,w
  3317     00CF  00F5               	movwf	___awdiv@dividend+1
  3318     00D0  120A  158A  2005  120A  118A  	fcall	___awdiv
  3319     00D5  0872               	movf	?___awdiv,w
  3320     00D6  3E30               	addlw	48
  3321     00D7  160A  118A  250D  120A  118A  	fcall	_clcd_putch
  3322     00DC                     l4054:
  3323                           
  3324                           ;main.c: 413:             wash_time = (int)(total_time *0.4);
  3325     00DC  30CA               	movlw	202
  3326     00DD  00F8               	movwf	clcd_putch@addr
  3327     00DE  300A               	movlw	10
  3328     00DF  00F2               	movwf	___awmod@divisor
  3329     00E0  3000               	movlw	0
  3330     00E1  00F3               	movwf	___awmod@divisor+1
  3331     00E2  1283               	bcf	3,5	;RP0=0, select bank0
  3332     00E3  1303               	bcf	3,6	;RP1=0, select bank0
  3333     00E4  086A               	movf	_sec,w
  3334     00E5  00D8               	movwf	??_run_program
  3335     00E6  01D9               	clrf	??_run_program+1
  3336     00E7  0858               	movf	??_run_program,w
  3337     00E8  00F4               	movwf	___awmod@dividend
  3338     00E9  0859               	movf	??_run_program+1,w
  3339     00EA  00F5               	movwf	___awmod@dividend+1
  3340     00EB  160A  118A  26D1  120A  118A  	fcall	___awmod
  3341     00F0  0872               	movf	?___awmod,w
  3342     00F1  3E30               	addlw	48
  3343     00F2  160A  118A  250D  120A  118A  	fcall	_clcd_putch
  3344                           
  3345                           ;main.c: 414:             rinse_time =(int)(total_time *0.12);
  3346     00F7  3045               	movlw	low (STR_35| (0+32768))
  3347     00F8  00F6               	movwf	clcd_print@str
  3348     00F9  3091               	movlw	high (STR_35| (0+32768))
  3349     00FA  00F7               	movwf	clcd_print@str+1
  3350     00FB  3095               	movlw	149
  3351     00FC  00F8               	movwf	clcd_print@addr
  3352     00FD  160A  118A  25CB  120A  118A  	fcall	_clcd_print
  3353     0102                     l4056:
  3354                           
  3355                           ;main.c: 415:             spin_time = total_time - wash_time - rinse_time;
  3356     0102  3033               	movlw	51
  3357     0103  1283               	bcf	3,5	;RP0=0, select bank0
  3358     0104  1303               	bcf	3,6	;RP1=0, select bank0
  3359     0105  00DA               	movwf	??_run_program+2
  3360     0106  30BB               	movlw	187
  3361     0107  00D9               	movwf	??_run_program+1
  3362     0108  30DF               	movlw	223
  3363     0109  00D8               	movwf	??_run_program
  3364     010A                     u5847:
  3365     010A  0BD8               	decfsz	??_run_program,f
  3366     010B  290A               	goto	u5847
  3367     010C  0BD9               	decfsz	??_run_program+1,f
  3368     010D  290A               	goto	u5847
  3369     010E  0BDA               	decfsz	??_run_program+2,f
  3370     010F  290A               	goto	u5847
  3371     0110                     l4058:
  3372                           
  3373                           ;main.c: 418:             TMR2ON = 1;
  3374     0110  160A  118A  24ED  120A  118A  	fcall	_clear_screen
  3375     0115                     l4060:
  3376                           
  3377                           ;main.c: 419: 
  3378     0115  30DF               	movlw	low (STR_30| (0+32768))
  3379     0116  00F6               	movwf	clcd_print@str
  3380     0117  3090               	movlw	high (STR_30| (0+32768))
  3381     0118  00F7               	movwf	clcd_print@str+1
  3382     0119  3080               	movlw	128
  3383     011A  00F8               	movwf	clcd_print@addr
  3384     011B  160A  118A  25CB  120A  118A  	fcall	_clcd_print
  3385     0120                     l4062:
  3386                           
  3387                           ;main.c: 420:             RC2 = 1;
  3388     0120  3080               	movlw	low (STR_31| (0+32768))
  3389     0121  00F6               	movwf	clcd_print@str
  3390     0122  3091               	movlw	high (STR_31| (0+32768))
  3391     0123  00F7               	movwf	clcd_print@str+1
  3392     0124  30C0               	movlw	192
  3393     0125  00F8               	movwf	clcd_print@addr
  3394     0126  160A  118A  25CB  120A  118A  	fcall	_clcd_print
  3395     012B                     l4064:
  3396                           
  3397                           ;main.c: 421:           }
  3398     012B  3034               	movlw	low (STR_32| (0+32768))
  3399     012C  00F6               	movwf	clcd_print@str
  3400     012D  3090               	movlw	high (STR_32| (0+32768))
  3401     012E  00F7               	movwf	clcd_print@str+1
  3402     012F  30D0               	movlw	208
  3403     0130  00F8               	movwf	clcd_print@addr
  3404     0131  160A  118A  25CB  120A  118A  	fcall	_clcd_print
  3405     0136                     l4066:
  3406                           
  3407                           ;main.c: 424:     {
  3408     0136  1283               	bcf	3,5	;RP0=0, select bank0
  3409     0137  1303               	bcf	3,6	;RP1=0, select bank0
  3410     0138  0869               	movf	_min,w
  3411     0139  00D8               	movwf	??_run_program
  3412     013A  01D9               	clrf	??_run_program+1
  3413     013B  0858               	movf	??_run_program,w
  3414     013C  00F2               	movwf	___wmul@multiplier
  3415     013D  0859               	movf	??_run_program+1,w
  3416     013E  00F3               	movwf	___wmul@multiplier+1
  3417     013F  303C               	movlw	60
  3418     0140  00F4               	movwf	___wmul@multiplicand
  3419     0141  3000               	movlw	0
  3420     0142  00F5               	movwf	___wmul@multiplicand+1
  3421     0143  160A  118A  257D  120A  118A  	fcall	___wmul
  3422     0148  1283               	bcf	3,5	;RP0=0, select bank0
  3423     0149  1303               	bcf	3,6	;RP1=0, select bank0
  3424     014A  086A               	movf	_sec,w
  3425     014B  0772               	addwf	?___wmul,w
  3426     014C  00E2               	movwf	run_program@total_time
  3427     014D  3000               	movlw	0
  3428     014E  1803               	skipnc
  3429     014F  3001               	movlw	1
  3430     0150  0773               	addwf	?___wmul+1,w
  3431     0151  00E3               	movwf	run_program@total_time+1
  3432     0152  0863               	movf	run_program@total_time+1,w
  3433     0153  00E1               	movwf	run_program@time+1
  3434     0154  0862               	movf	run_program@total_time,w
  3435     0155  00E0               	movwf	run_program@time
  3436     0156                     l4068:
  3437                           
  3438                           ;main.c: 425:         TMR2ON = 0;
  3439     0156  0862               	movf	run_program@total_time,w
  3440     0157  00F2               	movwf	___xxtofl@val
  3441     0158  0863               	movf	run_program@total_time+1,w
  3442     0159  00F3               	movwf	___xxtofl@val+1
  3443     015A  3000               	movlw	0
  3444     015B  1BF3               	btfsc	___xxtofl@val+1,7
  3445     015C  30FF               	movlw	255
  3446     015D  00F4               	movwf	___xxtofl@val+2
  3447     015E  00F5               	movwf	___xxtofl@val+3
  3448     015F  3001               	movlw	1
  3449     0160  120A  118A  2728  120A  118A  	fcall	___xxtofl
  3450     0165  0875               	movf	?___xxtofl+3,w
  3451     0166  1283               	bcf	3,5	;RP0=0, select bank0
  3452     0167  1303               	bcf	3,6	;RP1=0, select bank0
  3453     0168  00B1               	movwf	___flmul@a+3
  3454     0169  0874               	movf	?___xxtofl+2,w
  3455     016A  00B0               	movwf	___flmul@a+2
  3456     016B  0873               	movf	?___xxtofl+1,w
  3457     016C  00AF               	movwf	___flmul@a+1
  3458     016D  0872               	movf	?___xxtofl,w
  3459     016E  00AE               	movwf	___flmul@a
  3460     016F  303E               	movlw	62
  3461     0170  00AD               	movwf	___flmul@b+3
  3462     0171  30CC               	movlw	204
  3463     0172  00AC               	movwf	___flmul@b+2
  3464     0173  30CC               	movlw	204
  3465     0174  00AB               	movwf	___flmul@b+1
  3466     0175  30CD               	movlw	205
  3467     0176  00AA               	movwf	___flmul@b
  3468     0177  120A  118A  23E6  120A  118A  	fcall	___flmul
  3469     017C  1283               	bcf	3,5	;RP0=0, select bank0
  3470     017D  1303               	bcf	3,6	;RP1=0, select bank0
  3471     017E  082D               	movf	?___flmul+3,w
  3472     017F  00C7               	movwf	___fltol@f1+3
  3473     0180  082C               	movf	?___flmul+2,w
  3474     0181  00C6               	movwf	___fltol@f1+2
  3475     0182  082B               	movf	?___flmul+1,w
  3476     0183  00C5               	movwf	___fltol@f1+1
  3477     0184  082A               	movf	?___flmul,w
  3478     0185  00C4               	movwf	___fltol@f1
  3479     0186  160A  118A  278A  120A  118A  	fcall	___fltol
  3480     018B  1283               	bcf	3,5	;RP0=0, select bank0
  3481     018C  1303               	bcf	3,6	;RP1=0, select bank0
  3482     018D  0845               	movf	?___fltol+1,w
  3483     018E  00E7               	movwf	_wash_time+1
  3484     018F  0844               	movf	?___fltol,w
  3485     0190  00E6               	movwf	_wash_time
  3486     0191                     l4070:
  3487                           
  3488                           ;main.c: 426:         RC2 = 0;
  3489     0191  0862               	movf	run_program@total_time,w
  3490     0192  00F2               	movwf	___xxtofl@val
  3491     0193  0863               	movf	run_program@total_time+1,w
  3492     0194  00F3               	movwf	___xxtofl@val+1
  3493     0195  3000               	movlw	0
  3494     0196  1BF3               	btfsc	___xxtofl@val+1,7
  3495     0197  30FF               	movlw	255
  3496     0198  00F4               	movwf	___xxtofl@val+2
  3497     0199  00F5               	movwf	___xxtofl@val+3
  3498     019A  3001               	movlw	1
  3499     019B  120A  118A  2728  120A  118A  	fcall	___xxtofl
  3500     01A0  0875               	movf	?___xxtofl+3,w
  3501     01A1  1283               	bcf	3,5	;RP0=0, select bank0
  3502     01A2  1303               	bcf	3,6	;RP1=0, select bank0
  3503     01A3  00B1               	movwf	___flmul@a+3
  3504     01A4  0874               	movf	?___xxtofl+2,w
  3505     01A5  00B0               	movwf	___flmul@a+2
  3506     01A6  0873               	movf	?___xxtofl+1,w
  3507     01A7  00AF               	movwf	___flmul@a+1
  3508     01A8  0872               	movf	?___xxtofl,w
  3509     01A9  00AE               	movwf	___flmul@a
  3510     01AA  303D               	movlw	61
  3511     01AB  00AD               	movwf	___flmul@b+3
  3512     01AC  30F5               	movlw	245
  3513     01AD  00AC               	movwf	___flmul@b+2
  3514     01AE  30C2               	movlw	194
  3515     01AF  00AB               	movwf	___flmul@b+1
  3516     01B0  308F               	movlw	143
  3517     01B1  00AA               	movwf	___flmul@b
  3518     01B2  120A  118A  23E6  120A  118A  	fcall	___flmul
  3519     01B7  1283               	bcf	3,5	;RP0=0, select bank0
  3520     01B8  1303               	bcf	3,6	;RP1=0, select bank0
  3521     01B9  082D               	movf	?___flmul+3,w
  3522     01BA  00C7               	movwf	___fltol@f1+3
  3523     01BB  082C               	movf	?___flmul+2,w
  3524     01BC  00C6               	movwf	___fltol@f1+2
  3525     01BD  082B               	movf	?___flmul+1,w
  3526     01BE  00C5               	movwf	___fltol@f1+1
  3527     01BF  082A               	movf	?___flmul,w
  3528     01C0  00C4               	movwf	___fltol@f1
  3529     01C1  160A  118A  278A  120A  118A  	fcall	___fltol
  3530     01C6  1283               	bcf	3,5	;RP0=0, select bank0
  3531     01C7  1303               	bcf	3,6	;RP1=0, select bank0
  3532     01C8  0845               	movf	?___fltol+1,w
  3533     01C9  00E5               	movwf	_rinse_time+1
  3534     01CA  0844               	movf	?___fltol,w
  3535     01CB  00E4               	movwf	_rinse_time
  3536     01CC                     l4072:
  3537                           
  3538                           ;main.c: 427:         operation_mode = 0x05;
  3539     01CC  0966               	comf	_wash_time,w
  3540     01CD  00D8               	movwf	??_run_program
  3541     01CE  0967               	comf	_wash_time+1,w
  3542     01CF  00D9               	movwf	??_run_program+1
  3543     01D0  0AD8               	incf	??_run_program,f
  3544     01D1  1903               	skipnz
  3545     01D2  0AD9               	incf	??_run_program+1,f
  3546     01D3  0864               	movf	_rinse_time,w
  3547     01D4  0258               	subwf	??_run_program,w
  3548     01D5  00DA               	movwf	??_run_program+2
  3549     01D6  0865               	movf	_rinse_time+1,w
  3550     01D7  1C03               	skipc
  3551     01D8  0A65               	incf	_rinse_time+1,w
  3552     01D9  0259               	subwf	??_run_program+1,w
  3553     01DA  00DB               	movwf	??_run_program+3
  3554     01DB  0862               	movf	run_program@total_time,w
  3555     01DC  075A               	addwf	??_run_program+2,w
  3556     01DD  1683               	bsf	3,5	;RP0=1, select bank1
  3557     01DE  1303               	bcf	3,6	;RP1=0, select bank1
  3558     01DF  00C7               	movwf	_spin_time^(0+128)
  3559     01E0  1283               	bcf	3,5	;RP0=0, select bank0
  3560     01E1  1303               	bcf	3,6	;RP1=0, select bank0
  3561     01E2  0863               	movf	run_program@total_time+1,w
  3562     01E3  1803               	skipnc
  3563     01E4  0A63               	incf	run_program@total_time+1,w
  3564     01E5  075B               	addwf	??_run_program+3,w
  3565     01E6  1683               	bsf	3,5	;RP0=1, select bank1
  3566     01E7  1303               	bcf	3,6	;RP1=0, select bank1
  3567     01E8  00C8               	movwf	(_spin_time+1)^(0+128)
  3568     01E9                     l4074:
  3569                           
  3570                           ;main.c: 430:     total_time = (min*60+sec);
  3571     01E9  1283               	bcf	3,5	;RP0=0, select bank0
  3572     01EA  1303               	bcf	3,6	;RP1=0, select bank0
  3573     01EB  1512               	bsf	18,2	;volatile
  3574     01EC                     l4076:
  3575                           
  3576                           ;main.c: 432:     {
  3577     01EC  1507               	bsf	7,2	;volatile
  3578     01ED                     l4078:
  3579                           
  3580                           ;main.c: 435:         clcd_print("Wash",(0x80+11));
  3581     01ED  301F               	movlw	31
  3582     01EE  065F               	xorwf	run_program@key,w
  3583     01EF  1D03               	btfss	3,2
  3584     01F0  29F2               	goto	u5641
  3585     01F1  29F3               	goto	u5640
  3586     01F2                     u5641:
  3587     01F2  29F7               	goto	l4082
  3588     01F3                     u5640:
  3589     01F3                     l4080:
  3590                           
  3591                           ;main.c: 436:     };main.c: 437:     else if(total_time >= (time - wash_time - rinse_tim
      +                          e))
  3592     01F3  1112               	bcf	18,2	;volatile
  3593                           
  3594                           ;main.c: 438:        {
  3595     01F4  1107               	bcf	7,2	;volatile
  3596                           
  3597                           ;main.c: 439:            clcd_print("Rinse",(0x80+11));
  3598     01F5  3005               	movlw	5
  3599     01F6  00EC               	movwf	_operation_mode
  3600     01F7                     l4082:
  3601                           
  3602                           ;main.c: 442:            clcd_print("Spin ",(0x80+11));
  3603     01F7  0869               	movf	_min,w
  3604     01F8  00D8               	movwf	??_run_program
  3605     01F9  01D9               	clrf	??_run_program+1
  3606     01FA  0858               	movf	??_run_program,w
  3607     01FB  00F2               	movwf	___wmul@multiplier
  3608     01FC  0859               	movf	??_run_program+1,w
  3609     01FD  00F3               	movwf	___wmul@multiplier+1
  3610     01FE  303C               	movlw	60
  3611     01FF  00F4               	movwf	___wmul@multiplicand
  3612     0200  3000               	movlw	0
  3613     0201  00F5               	movwf	___wmul@multiplicand+1
  3614     0202  160A  118A  257D  120A  118A  	fcall	___wmul
  3615     0207  1283               	bcf	3,5	;RP0=0, select bank0
  3616     0208  1303               	bcf	3,6	;RP1=0, select bank0
  3617     0209  086A               	movf	_sec,w
  3618     020A  0772               	addwf	?___wmul,w
  3619     020B  00E2               	movwf	run_program@total_time
  3620     020C  3000               	movlw	0
  3621     020D  1803               	skipnc
  3622     020E  3001               	movlw	1
  3623     020F  0773               	addwf	?___wmul+1,w
  3624     0210  00E3               	movwf	run_program@total_time+1
  3625     0211                     l4084:
  3626                           
  3627                           ;main.c: 443:     }
  3628     0211  3008               	movlw	8
  3629     0212  027B               	subwf	_program_no,w
  3630     0213  1803               	skipnc
  3631     0214  2A16               	goto	u5651
  3632     0215  2A17               	goto	u5650
  3633     0216                     u5651:
  3634     0216  2A78               	goto	l4096
  3635     0217                     u5650:
  3636     0217                     l4086:
  3637                           
  3638                           ;main.c: 444:     else if(program_no == 8);main.c: 445:     {
  3639     0217  0866               	movf	_wash_time,w
  3640     0218  0260               	subwf	run_program@time,w
  3641     0219  00D8               	movwf	??_run_program
  3642     021A  0867               	movf	_wash_time+1,w
  3643     021B  1C03               	skipc
  3644     021C  0A67               	incf	_wash_time+1,w
  3645     021D  0261               	subwf	run_program@time+1,w
  3646     021E  00D9               	movwf	??_run_program+1
  3647     021F  0863               	movf	run_program@total_time+1,w
  3648     0220  3A80               	xorlw	128
  3649     0221  00DA               	movwf	??_run_program+2
  3650     0222  0859               	movf	??_run_program+1,w
  3651     0223  3A80               	xorlw	128
  3652     0224  025A               	subwf	??_run_program+2,w
  3653     0225  1D03               	skipz
  3654     0226  2A29               	goto	u5665
  3655     0227  0858               	movf	??_run_program,w
  3656     0228  0262               	subwf	run_program@total_time,w
  3657     0229                     u5665:
  3658     0229  1C03               	skipc
  3659     022A  2A2C               	goto	u5661
  3660     022B  2A2D               	goto	u5660
  3661     022C                     u5661:
  3662     022C  2A39               	goto	l4090
  3663     022D                     u5660:
  3664     022D                     l4088:
  3665                           
  3666                           ;main.c: 446:         if(total_time >= (time - (0.40 * time)) );main.c: 447:         {
  3667     022D  30FB               	movlw	low ((STR_5+6)| (0+32768))
  3668     022E  00F6               	movwf	clcd_print@str
  3669     022F  3090               	movlw	high ((STR_5+6)| (0+32768))
  3670     0230  00F7               	movwf	clcd_print@str+1
  3671     0231  308B               	movlw	139
  3672     0232  00F8               	movwf	clcd_print@addr
  3673     0233  160A  118A  25CB  120A  118A  	fcall	_clcd_print
  3674                           
  3675                           ;main.c: 448:           clcd_print("Rinse",(0x80+11));
  3676     0238  2B2D               	goto	l4110
  3677     0239                     l4090:
  3678     0239  1283               	bcf	3,5	;RP0=0, select bank0
  3679     023A  1303               	bcf	3,6	;RP1=0, select bank0
  3680     023B  0966               	comf	_wash_time,w
  3681     023C  00D8               	movwf	??_run_program
  3682     023D  0967               	comf	_wash_time+1,w
  3683     023E  00D9               	movwf	??_run_program+1
  3684     023F  0AD8               	incf	??_run_program,f
  3685     0240  1903               	skipnz
  3686     0241  0AD9               	incf	??_run_program+1,f
  3687     0242  0864               	movf	_rinse_time,w
  3688     0243  0258               	subwf	??_run_program,w
  3689     0244  00DA               	movwf	??_run_program+2
  3690     0245  0865               	movf	_rinse_time+1,w
  3691     0246  1C03               	skipc
  3692     0247  0A65               	incf	_rinse_time+1,w
  3693     0248  0259               	subwf	??_run_program+1,w
  3694     0249  00DB               	movwf	??_run_program+3
  3695     024A  0860               	movf	run_program@time,w
  3696     024B  075A               	addwf	??_run_program+2,w
  3697     024C  00DC               	movwf	??_run_program+4
  3698     024D  0861               	movf	run_program@time+1,w
  3699     024E  1803               	skipnc
  3700     024F  0A61               	incf	run_program@time+1,w
  3701     0250  075B               	addwf	??_run_program+3,w
  3702     0251  00DD               	movwf	??_run_program+5
  3703     0252  0863               	movf	run_program@total_time+1,w
  3704     0253  3A80               	xorlw	128
  3705     0254  00DE               	movwf	??_run_program+6
  3706     0255  085D               	movf	??_run_program+5,w
  3707     0256  3A80               	xorlw	128
  3708     0257  025E               	subwf	??_run_program+6,w
  3709     0258  1D03               	skipz
  3710     0259  2A5C               	goto	u5675
  3711     025A  085C               	movf	??_run_program+4,w
  3712     025B  0262               	subwf	run_program@total_time,w
  3713     025C                     u5675:
  3714     025C  1C03               	skipc
  3715     025D  2A5F               	goto	u5671
  3716     025E  2A60               	goto	u5670
  3717     025F                     u5671:
  3718     025F  2A6C               	goto	l4094
  3719     0260                     u5670:
  3720     0260                     l4092:
  3721                           
  3722                           ;main.c: 450:         else;main.c: 451:            clcd_print("Spin ",(0x80+11));
  3723     0260  306E               	movlw	low (STR_40| (0+32768))
  3724     0261  00F6               	movwf	clcd_print@str
  3725     0262  3091               	movlw	high (STR_40| (0+32768))
  3726     0263  00F7               	movwf	clcd_print@str+1
  3727     0264  308B               	movlw	139
  3728     0265  00F8               	movwf	clcd_print@addr
  3729     0266  160A  118A  25CB  120A  118A  	fcall	_clcd_print
  3730                           
  3731                           ;main.c: 452:     }
  3732     026B  2B2D               	goto	l4110
  3733     026C                     l4094:
  3734                           
  3735                           ;main.c: 454:     {
  3736     026C  3062               	movlw	low (STR_41| (0+32768))
  3737     026D  00F6               	movwf	clcd_print@str
  3738     026E  3091               	movlw	high (STR_41| (0+32768))
  3739     026F  00F7               	movwf	clcd_print@str+1
  3740     0270  308B               	movlw	139
  3741     0271  00F8               	movwf	clcd_print@addr
  3742     0272  160A  118A  25CB  120A  118A  	fcall	_clcd_print
  3743     0277  2B2D               	goto	l4110
  3744     0278                     l4096:
  3745     0278  3008               	movlw	8
  3746     0279  067B               	xorwf	_program_no,w
  3747     027A  1D03               	btfss	3,2
  3748     027B  2A7D               	goto	u5681
  3749     027C  2A7E               	goto	u5680
  3750     027D                     u5681:
  3751     027D  2B10               	goto	l4104
  3752     027E                     u5680:
  3753     027E                     l4098:
  3754                           
  3755                           ;main.c: 457:     else;main.c: 458:     {
  3756     027E  0862               	movf	run_program@total_time,w
  3757     027F  00F2               	movwf	___xxtofl@val
  3758     0280  0863               	movf	run_program@total_time+1,w
  3759     0281  00F3               	movwf	___xxtofl@val+1
  3760     0282  3000               	movlw	0
  3761     0283  1BF3               	btfsc	___xxtofl@val+1,7
  3762     0284  30FF               	movlw	255
  3763     0285  00F4               	movwf	___xxtofl@val+2
  3764     0286  00F5               	movwf	___xxtofl@val+3
  3765     0287  3001               	movlw	1
  3766     0288  120A  118A  2728  120A  118A  	fcall	___xxtofl
  3767     028D  0875               	movf	?___xxtofl+3,w
  3768     028E  1283               	bcf	3,5	;RP0=0, select bank0
  3769     028F  1303               	bcf	3,6	;RP1=0, select bank0
  3770     0290  00CF               	movwf	___flge@ff1+3
  3771     0291  0874               	movf	?___xxtofl+2,w
  3772     0292  00CE               	movwf	___flge@ff1+2
  3773     0293  0873               	movf	?___xxtofl+1,w
  3774     0294  00CD               	movwf	___flge@ff1+1
  3775     0295  0872               	movf	?___xxtofl,w
  3776     0296  00CC               	movwf	___flge@ff1
  3777     0297  0860               	movf	run_program@time,w
  3778     0298  00F2               	movwf	___xxtofl@val
  3779     0299  0861               	movf	run_program@time+1,w
  3780     029A  00F3               	movwf	___xxtofl@val+1
  3781     029B  3000               	movlw	0
  3782     029C  1BF3               	btfsc	___xxtofl@val+1,7
  3783     029D  30FF               	movlw	255
  3784     029E  00F4               	movwf	___xxtofl@val+2
  3785     029F  00F5               	movwf	___xxtofl@val+3
  3786     02A0  3001               	movlw	1
  3787     02A1  120A  118A  2728  120A  118A  	fcall	___xxtofl
  3788     02A6  0875               	movf	?___xxtofl+3,w
  3789     02A7  1283               	bcf	3,5	;RP0=0, select bank0
  3790     02A8  1303               	bcf	3,6	;RP1=0, select bank0
  3791     02A9  00CB               	movwf	___flsub@b+3
  3792     02AA  0874               	movf	?___xxtofl+2,w
  3793     02AB  00CA               	movwf	___flsub@b+2
  3794     02AC  0873               	movf	?___xxtofl+1,w
  3795     02AD  00C9               	movwf	___flsub@b+1
  3796     02AE  0872               	movf	?___xxtofl,w
  3797     02AF  00C8               	movwf	___flsub@b
  3798     02B0  0860               	movf	run_program@time,w
  3799     02B1  00F2               	movwf	___xxtofl@val
  3800     02B2  0861               	movf	run_program@time+1,w
  3801     02B3  00F3               	movwf	___xxtofl@val+1
  3802     02B4  3000               	movlw	0
  3803     02B5  1BF3               	btfsc	___xxtofl@val+1,7
  3804     02B6  30FF               	movlw	255
  3805     02B7  00F4               	movwf	___xxtofl@val+2
  3806     02B8  00F5               	movwf	___xxtofl@val+3
  3807     02B9  3001               	movlw	1
  3808     02BA  120A  118A  2728  120A  118A  	fcall	___xxtofl
  3809     02BF  0875               	movf	?___xxtofl+3,w
  3810     02C0  1283               	bcf	3,5	;RP0=0, select bank0
  3811     02C1  1303               	bcf	3,6	;RP1=0, select bank0
  3812     02C2  00B1               	movwf	___flmul@a+3
  3813     02C3  0874               	movf	?___xxtofl+2,w
  3814     02C4  00B0               	movwf	___flmul@a+2
  3815     02C5  0873               	movf	?___xxtofl+1,w
  3816     02C6  00AF               	movwf	___flmul@a+1
  3817     02C7  0872               	movf	?___xxtofl,w
  3818     02C8  00AE               	movwf	___flmul@a
  3819     02C9  303E               	movlw	62
  3820     02CA  00AD               	movwf	___flmul@b+3
  3821     02CB  30CC               	movlw	204
  3822     02CC  00AC               	movwf	___flmul@b+2
  3823     02CD  30CC               	movlw	204
  3824     02CE  00AB               	movwf	___flmul@b+1
  3825     02CF  30CD               	movlw	205
  3826     02D0  00AA               	movwf	___flmul@b
  3827     02D1  120A  118A  23E6  120A  118A  	fcall	___flmul
  3828     02D6  1283               	bcf	3,5	;RP0=0, select bank0
  3829     02D7  1303               	bcf	3,6	;RP1=0, select bank0
  3830     02D8  082D               	movf	?___flmul+3,w
  3831     02D9  00C7               	movwf	___flsub@a+3
  3832     02DA  082C               	movf	?___flmul+2,w
  3833     02DB  00C6               	movwf	___flsub@a+2
  3834     02DC  082B               	movf	?___flmul+1,w
  3835     02DD  00C5               	movwf	___flsub@a+1
  3836     02DE  082A               	movf	?___flmul,w
  3837     02DF  00C4               	movwf	___flsub@a
  3838     02E0  160A  118A  2559  120A  118A  	fcall	___flsub
  3839     02E5  1283               	bcf	3,5	;RP0=0, select bank0
  3840     02E6  1303               	bcf	3,6	;RP1=0, select bank0
  3841     02E7  0847               	movf	?___flsub+3,w
  3842     02E8  00D3               	movwf	___flge@ff2+3
  3843     02E9  0846               	movf	?___flsub+2,w
  3844     02EA  00D2               	movwf	___flge@ff2+2
  3845     02EB  0845               	movf	?___flsub+1,w
  3846     02EC  00D1               	movwf	___flge@ff2+1
  3847     02ED  0844               	movf	?___flsub,w
  3848     02EE  00D0               	movwf	___flge@ff2
  3849     02EF  120A  158A  20FF  120A  118A  	fcall	___flge
  3850     02F4  1C03               	btfss	3,0
  3851     02F5  2AF7               	goto	u5691
  3852     02F6  2AF8               	goto	u5690
  3853     02F7                     u5691:
  3854     02F7  2B04               	goto	l4102
  3855     02F8                     u5690:
  3856     02F8                     l4100:
  3857                           
  3858                           ;main.c: 459:         clcd_print("Wash",(0x80+11));;main.c: 460:     }
  3859     02F8  306E               	movlw	low (STR_40| (0+32768))
  3860     02F9  00F6               	movwf	clcd_print@str
  3861     02FA  3091               	movlw	high (STR_40| (0+32768))
  3862     02FB  00F7               	movwf	clcd_print@str+1
  3863     02FC  308B               	movlw	139
  3864     02FD  00F8               	movwf	clcd_print@addr
  3865     02FE  160A  118A  25CB  120A  118A  	fcall	_clcd_print
  3866                           
  3867                           ;main.c: 461: 
  3868     0303  2B2D               	goto	l4110
  3869     0304                     l4102:
  3870                           
  3871                           ;main.c: 463:     clcd_putch((min%10)+'0',(0xC0+7));
  3872     0304  3062               	movlw	low (STR_41| (0+32768))
  3873     0305  00F6               	movwf	clcd_print@str
  3874     0306  3091               	movlw	high (STR_41| (0+32768))
  3875     0307  00F7               	movwf	clcd_print@str+1
  3876     0308  308B               	movlw	139
  3877     0309  00F8               	movwf	clcd_print@addr
  3878     030A  160A  118A  25CB  120A  118A  	fcall	_clcd_print
  3879     030F  2B2D               	goto	l4110
  3880     0310                     l4104:
  3881     0310  3009               	movlw	9
  3882     0311  067B               	xorwf	_program_no,w
  3883     0312  1D03               	btfss	3,2
  3884     0313  2B15               	goto	u5701
  3885     0314  2B16               	goto	u5700
  3886     0315                     u5701:
  3887     0315  2B22               	goto	l4108
  3888     0316                     u5700:
  3889     0316                     l4106:
  3890                           
  3891                           ;main.c: 466:     clcd_putch((sec%10)+'0',(0xC0+10));;main.c: 467: 
  3892     0316  306E               	movlw	low (STR_40| (0+32768))
  3893     0317  00F6               	movwf	clcd_print@str
  3894     0318  3091               	movlw	high (STR_40| (0+32768))
  3895     0319  00F7               	movwf	clcd_print@str+1
  3896     031A  308B               	movlw	139
  3897     031B  00F8               	movwf	clcd_print@addr
  3898     031C  160A  118A  25CB  120A  118A  	fcall	_clcd_print
  3899                           
  3900                           ;main.c: 468:     if(sec == 0 && min == 0)
  3901     0321  2B2D               	goto	l4110
  3902     0322                     l4108:
  3903                           
  3904                           ;main.c: 470: ;main.c: 471:           TMR2ON = 0;
  3905     0322  30FB               	movlw	low ((STR_5+6)| (0+32768))
  3906     0323  00F6               	movwf	clcd_print@str
  3907     0324  3090               	movlw	high ((STR_5+6)| (0+32768))
  3908     0325  00F7               	movwf	clcd_print@str+1
  3909     0326  308B               	movlw	139
  3910     0327  00F8               	movwf	clcd_print@addr
  3911     0328  160A  118A  25CB  120A  118A  	fcall	_clcd_print
  3912     032D                     l4110:
  3913                           
  3914                           ;main.c: 474: 
  3915     032D  30C6               	movlw	198
  3916     032E  00F8               	movwf	clcd_putch@addr
  3917     032F  300A               	movlw	10
  3918     0330  00F2               	movwf	___awdiv@divisor
  3919     0331  3000               	movlw	0
  3920     0332  00F3               	movwf	___awdiv@divisor+1
  3921     0333  1283               	bcf	3,5	;RP0=0, select bank0
  3922     0334  1303               	bcf	3,6	;RP1=0, select bank0
  3923     0335  0869               	movf	_min,w
  3924     0336  00D8               	movwf	??_run_program
  3925     0337  01D9               	clrf	??_run_program+1
  3926     0338  0858               	movf	??_run_program,w
  3927     0339  00F4               	movwf	___awdiv@dividend
  3928     033A  0859               	movf	??_run_program+1,w
  3929     033B  00F5               	movwf	___awdiv@dividend+1
  3930     033C  120A  158A  2005  120A  118A  	fcall	___awdiv
  3931     0341  0872               	movf	?___awdiv,w
  3932     0342  3E30               	addlw	48
  3933     0343  160A  118A  250D  120A  118A  	fcall	_clcd_putch
  3934     0348                     l4112:
  3935                           
  3936                           ;main.c: 475:           PORTCbits.RC2 = 1;
  3937     0348  30C7               	movlw	199
  3938     0349  00F8               	movwf	clcd_putch@addr
  3939     034A  300A               	movlw	10
  3940     034B  00F2               	movwf	___awmod@divisor
  3941     034C  3000               	movlw	0
  3942     034D  00F3               	movwf	___awmod@divisor+1
  3943     034E  1283               	bcf	3,5	;RP0=0, select bank0
  3944     034F  1303               	bcf	3,6	;RP1=0, select bank0
  3945     0350  0869               	movf	_min,w
  3946     0351  00D8               	movwf	??_run_program
  3947     0352  01D9               	clrf	??_run_program+1
  3948     0353  0858               	movf	??_run_program,w
  3949     0354  00F4               	movwf	___awmod@dividend
  3950     0355  0859               	movf	??_run_program+1,w
  3951     0356  00F5               	movwf	___awmod@dividend+1
  3952     0357  160A  118A  26D1  120A  118A  	fcall	___awmod
  3953     035C  0872               	movf	?___awmod,w
  3954     035D  3E30               	addlw	48
  3955     035E  160A  118A  250D  120A  118A  	fcall	_clcd_putch
  3956     0363                     l4114:
  3957                           
  3958                           ;main.c: 476: 
  3959     0363  30C8               	movlw	200
  3960     0364  00F8               	movwf	clcd_putch@addr
  3961     0365  303A               	movlw	58
  3962     0366  160A  118A  250D  120A  118A  	fcall	_clcd_putch
  3963     036B                     l4116:
  3964                           
  3965                           ;main.c: 477:           clear_screen();
  3966     036B  30C9               	movlw	201
  3967     036C  00F8               	movwf	clcd_putch@addr
  3968     036D  300A               	movlw	10
  3969     036E  00F2               	movwf	___awdiv@divisor
  3970     036F  3000               	movlw	0
  3971     0370  00F3               	movwf	___awdiv@divisor+1
  3972     0371  1283               	bcf	3,5	;RP0=0, select bank0
  3973     0372  1303               	bcf	3,6	;RP1=0, select bank0
  3974     0373  086A               	movf	_sec,w
  3975     0374  00D8               	movwf	??_run_program
  3976     0375  01D9               	clrf	??_run_program+1
  3977     0376  0858               	movf	??_run_program,w
  3978     0377  00F4               	movwf	___awdiv@dividend
  3979     0378  0859               	movf	??_run_program+1,w
  3980     0379  00F5               	movwf	___awdiv@dividend+1
  3981     037A  120A  158A  2005  120A  118A  	fcall	___awdiv
  3982     037F  0872               	movf	?___awdiv,w
  3983     0380  3E30               	addlw	48
  3984     0381  160A  118A  250D  120A  118A  	fcall	_clcd_putch
  3985     0386                     l4118:
  3986                           
  3987                           ;main.c: 478:           clcd_print("Prog. Completed", (0x80+0));
  3988     0386  30CA               	movlw	202
  3989     0387  00F8               	movwf	clcd_putch@addr
  3990     0388  300A               	movlw	10
  3991     0389  00F2               	movwf	___awmod@divisor
  3992     038A  3000               	movlw	0
  3993     038B  00F3               	movwf	___awmod@divisor+1
  3994     038C  1283               	bcf	3,5	;RP0=0, select bank0
  3995     038D  1303               	bcf	3,6	;RP1=0, select bank0
  3996     038E  086A               	movf	_sec,w
  3997     038F  00D8               	movwf	??_run_program
  3998     0390  01D9               	clrf	??_run_program+1
  3999     0391  0858               	movf	??_run_program,w
  4000     0392  00F4               	movwf	___awmod@dividend
  4001     0393  0859               	movf	??_run_program+1,w
  4002     0394  00F5               	movwf	___awmod@dividend+1
  4003     0395  160A  118A  26D1  120A  118A  	fcall	___awmod
  4004     039A  0872               	movf	?___awmod,w
  4005     039B  3E30               	addlw	48
  4006     039C  160A  118A  250D  120A  118A  	fcall	_clcd_putch
  4007     03A1                     l4120:
  4008                           
  4009                           ;main.c: 480:           _delay((unsigned long)((2000)*(20000000/4000.0)));
  4010     03A1  1283               	bcf	3,5	;RP0=0, select bank0
  4011     03A2  1303               	bcf	3,6	;RP1=0, select bank0
  4012     03A3  086A               	movf	_sec,w
  4013     03A4  1D03               	btfss	3,2
  4014     03A5  2BA7               	goto	u5711
  4015     03A6  2BA8               	goto	u5710
  4016     03A7                     u5711:
  4017     03A7  2BE5               	goto	l274
  4018     03A8                     u5710:
  4019     03A8                     l4122:
  4020     03A8  0869               	movf	_min,w
  4021     03A9  1D03               	btfss	3,2
  4022     03AA  2BAC               	goto	u5721
  4023     03AB  2BAD               	goto	u5720
  4024     03AC                     u5721:
  4025     03AC  2BE5               	goto	l274
  4026     03AD                     u5720:
  4027     03AD                     l4124:
  4028                           
  4029                           ;main.c: 481:           PORTCbits.RC2 = 0;;main.c: 483:           reset_mode = 0x10;
  4030     03AD  1112               	bcf	18,2	;volatile
  4031                           
  4032                           ;main.c: 485: 
  4033     03AE  1107               	bcf	7,2	;volatile
  4034                           
  4035                           ;main.c: 487: 
  4036     03AF  1507               	bsf	7,2	;volatile
  4037     03B0                     l4126:
  4038     03B0  160A  118A  24ED  120A  118A  	fcall	_clear_screen
  4039     03B5                     l4128:
  4040     03B5  3066               	movlw	low (STR_46| (0+32768))
  4041     03B6  00F6               	movwf	clcd_print@str
  4042     03B7  3090               	movlw	high (STR_46| (0+32768))
  4043     03B8  00F7               	movwf	clcd_print@str+1
  4044     03B9  3080               	movlw	128
  4045     03BA  00F8               	movwf	clcd_print@addr
  4046     03BB  160A  118A  25CB  120A  118A  	fcall	_clcd_print
  4047     03C0                     l4130:
  4048     03C0  3086               	movlw	low (STR_47| (0+32768))
  4049     03C1  00F6               	movwf	clcd_print@str
  4050     03C2  3090               	movlw	high (STR_47| (0+32768))
  4051     03C3  00F7               	movwf	clcd_print@str+1
  4052     03C4  30C0               	movlw	192
  4053     03C5  00F8               	movwf	clcd_print@addr
  4054     03C6  160A  118A  25CB  120A  118A  	fcall	_clcd_print
  4055     03CB                     l4132:
  4056     03CB  3033               	movlw	51
  4057     03CC  1283               	bcf	3,5	;RP0=0, select bank0
  4058     03CD  1303               	bcf	3,6	;RP1=0, select bank0
  4059     03CE  00DA               	movwf	??_run_program+2
  4060     03CF  30BB               	movlw	187
  4061     03D0  00D9               	movwf	??_run_program+1
  4062     03D1  30DF               	movlw	223
  4063     03D2  00D8               	movwf	??_run_program
  4064     03D3                     u5857:
  4065     03D3  0BD8               	decfsz	??_run_program,f
  4066     03D4  2BD3               	goto	u5857
  4067     03D5  0BD9               	decfsz	??_run_program+1,f
  4068     03D6  2BD3               	goto	u5857
  4069     03D7  0BDA               	decfsz	??_run_program+2,f
  4070     03D8  2BD3               	goto	u5857
  4071     03D9                     l4134:
  4072     03D9  1283               	bcf	3,5	;RP0=0, select bank0
  4073     03DA  1303               	bcf	3,6	;RP1=0, select bank0
  4074     03DB  1107               	bcf	7,2	;volatile
  4075     03DC                     l4136:
  4076     03DC  3001               	movlw	1
  4077     03DD  00EC               	movwf	_operation_mode
  4078     03DE                     l4138:
  4079     03DE  3010               	movlw	16
  4080     03DF  00EB               	movwf	_reset_mode
  4081     03E0                     l4140:
  4082     03E0  160A  118A  24ED  120A  118A  	fcall	_clear_screen
  4083     03E5                     l274:
  4084     03E5  0008               	return
  4085     03E6                     __end_of_run_program:
  4086                           
  4087                           	psect	text5
  4088     167B                     __ptext5:	
  4089 ;; *************** function _door_status_check *****************
  4090 ;; Defined at:
  4091 ;;		line 366 in file "main.c"
  4092 ;; Parameters:    Size  Location     Type
  4093 ;;		None
  4094 ;; Auto vars:     Size  Location     Type
  4095 ;;		None
  4096 ;; Return value:  Size  Location     Type
  4097 ;;                  1    wreg      void 
  4098 ;; Registers used:
  4099 ;;		wreg, fsr0l, fsr0h, status,2, status,0, btemp+1, pclath, cstack
  4100 ;; Tracked objects:
  4101 ;;		On entry : 0/0
  4102 ;;		On exit  : 0/0
  4103 ;;		Unchanged: 0/0
  4104 ;; Data sizes:     COMMON   BANK0   BANK1   BANK3   BANK2
  4105 ;;      Params:         0       0       0       0       0
  4106 ;;      Locals:         0       0       0       0       0
  4107 ;;      Temps:          0       0       0       0       0
  4108 ;;      Totals:         0       0       0       0       0
  4109 ;;Total ram usage:        0 bytes
  4110 ;; Hardware stack levels used: 1
  4111 ;; Hardware stack levels required when called: 3
  4112 ;; This function calls:
  4113 ;;		_clcd_print
  4114 ;;		_clear_screen
  4115 ;; This function is called by:
  4116 ;;		_run_program
  4117 ;; This function uses a non-reentrant model
  4118 ;;
  4119                           
  4120     167B                     _door_status_check:	
  4121                           ;psect for function _door_status_check
  4122                           
  4123     167B                     l3848:	
  4124                           ;incstack = 0
  4125                           ; Regs used in _door_status_check: [wreg-fsr0h+status,2+status,0+btemp+1+pclath+cstack]
  4126                           
  4127                           
  4128                           ;main.c: 368:         while( RB0 == 0 )
  4129     167B  1283               	bcf	3,5	;RP0=0, select bank0
  4130     167C  1303               	bcf	3,6	;RP1=0, select bank0
  4131     167D  1806               	btfsc	6,0	;volatile
  4132     167E  2E80               	goto	u5361
  4133     167F  2E81               	goto	u5360
  4134     1680                     u5361:
  4135     1680  2ED0               	goto	l252
  4136     1681                     u5360:
  4137     1681                     l3850:
  4138                           
  4139                           ;main.c: 369:         {;main.c: 371:         }
  4140     1681  1507               	bsf	7,2	;volatile
  4141                           
  4142                           ;main.c: 372:         clear_screen();
  4143     1682  1107               	bcf	7,2	;volatile
  4144                           
  4145                           ;main.c: 373: 
  4146     1683  1112               	bcf	18,2	;volatile
  4147     1684                     l3852:
  4148                           
  4149                           ;main.c: 375:         TMR2ON = 1;
  4150     1684  160A  118A  24ED  160A  118A  	fcall	_clear_screen
  4151     1689                     l3854:
  4152                           
  4153                           ;main.c: 376: 
  4154     1689  30C7               	movlw	low (STR_28| (0+32768))
  4155     168A  00F6               	movwf	clcd_print@str
  4156     168B  3090               	movlw	high (STR_28| (0+32768))
  4157     168C  00F7               	movwf	clcd_print@str+1
  4158     168D  3080               	movlw	128
  4159     168E  00F8               	movwf	clcd_print@addr
  4160     168F  160A  118A  25CB  160A  118A  	fcall	_clcd_print
  4161     1694                     l3856:
  4162                           
  4163                           ;main.c: 377:         PORTCbits.RC2 = 0;
  4164     1694  30A1               	movlw	low (STR_29| (0+32768))
  4165     1695  00F6               	movwf	clcd_print@str
  4166     1696  3090               	movlw	high (STR_29| (0+32768))
  4167     1697  00F7               	movwf	clcd_print@str+1
  4168     1698  3090               	movlw	144
  4169     1699  00F8               	movwf	clcd_print@addr
  4170     169A  160A  118A  25CB  160A  118A  	fcall	_clcd_print
  4171     169F                     l249:	
  4172                           ;main.c: 381: ;main.c: 383: }
  4173                           
  4174                           
  4175                           ;main.c: 380:         clcd_print("5-START  6-PAUSE", (0xD0+0));
  4176     169F  1283               	bcf	3,5	;RP0=0, select bank0
  4177     16A0  1303               	bcf	3,6	;RP1=0, select bank0
  4178     16A1  1C06               	btfss	6,0	;volatile
  4179     16A2  2EA4               	goto	u5371
  4180     16A3  2EA5               	goto	u5370
  4181     16A4                     u5371:
  4182     16A4  2E9F               	goto	l249
  4183     16A5                     u5370:
  4184     16A5                     l3858:
  4185                           
  4186                           ;main.c: 384: 
  4187     16A5  160A  118A  24ED  160A  118A  	fcall	_clear_screen
  4188     16AA                     l3860:
  4189                           
  4190                           ;main.c: 386: {
  4191     16AA  1283               	bcf	3,5	;RP0=0, select bank0
  4192     16AB  1303               	bcf	3,6	;RP1=0, select bank0
  4193     16AC  1507               	bsf	7,2	;volatile
  4194     16AD                     l3862:
  4195                           
  4196                           ;main.c: 387:     door_status_check();
  4197     16AD  1512               	bsf	18,2	;volatile
  4198     16AE                     l3864:
  4199                           
  4200                           ;main.c: 389:         if(reset_mode == 0x12)
  4201     16AE  1107               	bcf	7,2	;volatile
  4202     16AF                     l3866:
  4203                           
  4204                           ;main.c: 390:         {
  4205     16AF  30DF               	movlw	low (STR_30| (0+32768))
  4206     16B0  00F6               	movwf	clcd_print@str
  4207     16B1  3090               	movlw	high (STR_30| (0+32768))
  4208     16B2  00F7               	movwf	clcd_print@str+1
  4209     16B3  3080               	movlw	128
  4210     16B4  00F8               	movwf	clcd_print@addr
  4211     16B5  160A  118A  25CB  160A  118A  	fcall	_clcd_print
  4212     16BA                     l3868:
  4213                           
  4214                           ;main.c: 391:             clear_screen();
  4215     16BA  3080               	movlw	low (STR_31| (0+32768))
  4216     16BB  00F6               	movwf	clcd_print@str
  4217     16BC  3091               	movlw	high (STR_31| (0+32768))
  4218     16BD  00F7               	movwf	clcd_print@str+1
  4219     16BE  30C0               	movlw	192
  4220     16BF  00F8               	movwf	clcd_print@addr
  4221     16C0  160A  118A  25CB  160A  118A  	fcall	_clcd_print
  4222     16C5                     l3870:
  4223                           
  4224                           ;main.c: 392:             clcd_print("Prog: ",(0x80+0));
  4225     16C5  3034               	movlw	low (STR_32| (0+32768))
  4226     16C6  00F6               	movwf	clcd_print@str
  4227     16C7  3090               	movlw	high (STR_32| (0+32768))
  4228     16C8  00F7               	movwf	clcd_print@str+1
  4229     16C9  30D0               	movlw	208
  4230     16CA  00F8               	movwf	clcd_print@addr
  4231     16CB  160A  118A  25CB  160A  118A  	fcall	_clcd_print
  4232     16D0                     l252:
  4233     16D0  0008               	return
  4234     16D1                     __end_of_door_status_check:
  4235                           
  4236                           	psect	text6
  4237     14ED                     __ptext6:	
  4238 ;; *************** function _clear_screen *****************
  4239 ;; Defined at:
  4240 ;;		line 125 in file "main.c"
  4241 ;; Parameters:    Size  Location     Type
  4242 ;;		None
  4243 ;; Auto vars:     Size  Location     Type
  4244 ;;		None
  4245 ;; Return value:  Size  Location     Type
  4246 ;;                  1    wreg      void 
  4247 ;; Registers used:
  4248 ;;		wreg, status,2, status,0, pclath, cstack
  4249 ;; Tracked objects:
  4250 ;;		On entry : 0/0
  4251 ;;		On exit  : 0/0
  4252 ;;		Unchanged: 0/0
  4253 ;; Data sizes:     COMMON   BANK0   BANK1   BANK3   BANK2
  4254 ;;      Params:         0       0       0       0       0
  4255 ;;      Locals:         0       0       0       0       0
  4256 ;;      Temps:          1       0       0       0       0
  4257 ;;      Totals:         1       0       0       0       0
  4258 ;;Total ram usage:        1 bytes
  4259 ;; Hardware stack levels used: 1
  4260 ;; Hardware stack levels required when called: 2
  4261 ;; This function calls:
  4262 ;;		_clcd_write
  4263 ;; This function is called by:
  4264 ;;		_main
  4265 ;;		_washing_program_display
  4266 ;;		_water_level_display
  4267 ;;		_door_status_check
  4268 ;;		_run_program
  4269 ;; This function uses a non-reentrant model
  4270 ;;
  4271                           
  4272     14ED                     _clear_screen:	
  4273                           ;psect for function _clear_screen
  4274                           
  4275     14ED                     l3834:	
  4276                           ;incstack = 0
  4277                           ; Regs used in _clear_screen: [wreg+status,2+status,0+pclath+cstack]
  4278                           
  4279                           
  4280                           ;main.c: 127: clcd_print(" Washing Machine ", (0x90+0));
  4281     14ED  01F2               	clrf	clcd_write@mode
  4282     14EE  3001               	movlw	1
  4283     14EF  160A  118A  2538  160A  118A  	fcall	_clcd_write
  4284     14F4                     l3836:
  4285                           
  4286                           ;main.c: 128: for(unsigned char i = 0; i < 16; i++)
  4287     14F4  30A6               	movlw	166
  4288     14F5  00F6               	movwf	??_clear_screen
  4289     14F6                     u5867:
  4290     14F6  0BF6               	decfsz	??_clear_screen,f
  4291     14F7  2CF6               	goto	u5867
  4292     14F8  0000               	nop
  4293     14F9                     l155:
  4294     14F9  0008               	return
  4295     14FA                     __end_of_clear_screen:
  4296                           
  4297                           	psect	text7
  4298     0728                     __ptext7:	
  4299 ;; *************** function ___xxtofl *****************
  4300 ;; Defined at:
  4301 ;;		line 10 in file "C:\Program Files\Microchip\xc8\v3.00\pic\sources\c99\common\xxtofl.c"
  4302 ;; Parameters:    Size  Location     Type
  4303 ;;  sign            1    wreg     unsigned char 
  4304 ;;  val             4    2[COMMON] long 
  4305 ;; Auto vars:     Size  Location     Type
  4306 ;;  sign            1    4[BANK0 ] unsigned char 
  4307 ;;  arg             4    6[BANK0 ] unsigned long 
  4308 ;;  exp             1    5[BANK0 ] unsigned char 
  4309 ;; Return value:  Size  Location     Type
  4310 ;;                  4    2[COMMON] unsigned char 
  4311 ;; Registers used:
  4312 ;;		wreg, status,2, status,0
  4313 ;; Tracked objects:
  4314 ;;		On entry : 0/0
  4315 ;;		On exit  : 0/0
  4316 ;;		Unchanged: 0/0
  4317 ;; Data sizes:     COMMON   BANK0   BANK1   BANK3   BANK2
  4318 ;;      Params:         4       0       0       0       0
  4319 ;;      Locals:         0       6       0       0       0
  4320 ;;      Temps:          0       4       0       0       0
  4321 ;;      Totals:         4      10       0       0       0
  4322 ;;Total ram usage:       14 bytes
  4323 ;; Hardware stack levels used: 1
  4324 ;; Hardware stack levels required when called: 1
  4325 ;; This function calls:
  4326 ;;		Nothing
  4327 ;; This function is called by:
  4328 ;;		_run_program
  4329 ;; This function uses a non-reentrant model
  4330 ;;
  4331                           
  4332     0728                     ___xxtofl:	
  4333                           ;psect for function ___xxtofl
  4334                           
  4335                           
  4336                           ;incstack = 0
  4337                           ; Regs used in ___xxtofl: [wreg+status,2+status,0]
  4338                           ;___xxtofl@sign stored from wreg
  4339     0728  1283               	bcf	3,5	;RP0=0, select bank0
  4340     0729  1303               	bcf	3,6	;RP1=0, select bank0
  4341     072A  00A4               	movwf	___xxtofl@sign
  4342     072B                     l3350:
  4343     072B  0824               	movf	___xxtofl@sign,w
  4344     072C  1903               	btfsc	3,2
  4345     072D  2F2F               	goto	u4731
  4346     072E  2F30               	goto	u4730
  4347     072F                     u4731:
  4348     072F  2F44               	goto	l3356
  4349     0730                     u4730:
  4350     0730                     l3352:
  4351     0730  1FF5               	btfss	___xxtofl@val+3,7
  4352     0731  2F33               	goto	u4741
  4353     0732  2F34               	goto	u4740
  4354     0733                     u4741:
  4355     0733  2F44               	goto	l3356
  4356     0734                     u4740:
  4357     0734                     l3354:
  4358     0734  0972               	comf	___xxtofl@val,w
  4359     0735  00A6               	movwf	___xxtofl@arg
  4360     0736  0973               	comf	___xxtofl@val+1,w
  4361     0737  00A7               	movwf	___xxtofl@arg+1
  4362     0738  0974               	comf	___xxtofl@val+2,w
  4363     0739  00A8               	movwf	___xxtofl@arg+2
  4364     073A  0975               	comf	___xxtofl@val+3,w
  4365     073B  00A9               	movwf	___xxtofl@arg+3
  4366     073C  0AA6               	incf	___xxtofl@arg,f
  4367     073D  1903               	skipnz
  4368     073E  0AA7               	incf	___xxtofl@arg+1,f
  4369     073F  1903               	skipnz
  4370     0740  0AA8               	incf	___xxtofl@arg+2,f
  4371     0741  1903               	skipnz
  4372     0742  0AA9               	incf	___xxtofl@arg+3,f
  4373     0743  2F4C               	goto	l853
  4374     0744                     l3356:
  4375     0744  0875               	movf	___xxtofl@val+3,w
  4376     0745  00A9               	movwf	___xxtofl@arg+3
  4377     0746  0874               	movf	___xxtofl@val+2,w
  4378     0747  00A8               	movwf	___xxtofl@arg+2
  4379     0748  0873               	movf	___xxtofl@val+1,w
  4380     0749  00A7               	movwf	___xxtofl@arg+1
  4381     074A  0872               	movf	___xxtofl@val,w
  4382     074B  00A6               	movwf	___xxtofl@arg
  4383     074C                     l853:
  4384     074C  0875               	movf	___xxtofl@val+3,w
  4385     074D  0474               	iorwf	___xxtofl@val+2,w
  4386     074E  0473               	iorwf	___xxtofl@val+1,w
  4387     074F  0472               	iorwf	___xxtofl@val,w
  4388     0750  1D03               	skipz
  4389     0751  2F53               	goto	u4751
  4390     0752  2F54               	goto	u4750
  4391     0753                     u4751:
  4392     0753  2F5D               	goto	l854
  4393     0754                     u4750:
  4394     0754                     l3358:
  4395     0754  3000               	movlw	0
  4396     0755  00F5               	movwf	?___xxtofl+3
  4397     0756  3000               	movlw	0
  4398     0757  00F4               	movwf	?___xxtofl+2
  4399     0758  3000               	movlw	0
  4400     0759  00F3               	movwf	?___xxtofl+1
  4401     075A  3000               	movlw	0
  4402     075B  00F2               	movwf	?___xxtofl
  4403     075C  2FDD               	goto	l855
  4404     075D                     l854:
  4405     075D  3096               	movlw	150
  4406     075E  00A5               	movwf	___xxtofl@exp
  4407     075F  2F6B               	goto	l3364
  4408     0760                     l3362:
  4409     0760  3001               	movlw	1
  4410     0761  07A5               	addwf	___xxtofl@exp,f
  4411     0762  3001               	movlw	1
  4412     0763                     u4765:
  4413     0763  1003               	clrc
  4414     0764  0CA9               	rrf	___xxtofl@arg+3,f
  4415     0765  0CA8               	rrf	___xxtofl@arg+2,f
  4416     0766  0CA7               	rrf	___xxtofl@arg+1,f
  4417     0767  0CA6               	rrf	___xxtofl@arg,f
  4418     0768  3EFF               	addlw	-1
  4419     0769  1D03               	skipz
  4420     076A  2F63               	goto	u4765
  4421     076B                     l3364:
  4422     076B  30FE               	movlw	254
  4423     076C  0529               	andwf	___xxtofl@arg+3,w
  4424     076D  1D03               	btfss	3,2
  4425     076E  2F70               	goto	u4771
  4426     076F  2F71               	goto	u4770
  4427     0770                     u4771:
  4428     0770  2F60               	goto	l3362
  4429     0771                     u4770:
  4430     0771  2F8B               	goto	l859
  4431     0772                     l3366:
  4432     0772  3001               	movlw	1
  4433     0773  07A5               	addwf	___xxtofl@exp,f
  4434     0774                     l3368:
  4435     0774  3001               	movlw	1
  4436     0775  07A6               	addwf	___xxtofl@arg,f
  4437     0776  3000               	movlw	0
  4438     0777  1803               	skipnc
  4439     0778  3001               	movlw	1
  4440     0779  07A7               	addwf	___xxtofl@arg+1,f
  4441     077A  3000               	movlw	0
  4442     077B  1803               	skipnc
  4443     077C  3001               	movlw	1
  4444     077D  07A8               	addwf	___xxtofl@arg+2,f
  4445     077E  3000               	movlw	0
  4446     077F  1803               	skipnc
  4447     0780  3001               	movlw	1
  4448     0781  07A9               	addwf	___xxtofl@arg+3,f
  4449     0782                     l3370:
  4450     0782  3001               	movlw	1
  4451     0783                     u4785:
  4452     0783  1003               	clrc
  4453     0784  0CA9               	rrf	___xxtofl@arg+3,f
  4454     0785  0CA8               	rrf	___xxtofl@arg+2,f
  4455     0786  0CA7               	rrf	___xxtofl@arg+1,f
  4456     0787  0CA6               	rrf	___xxtofl@arg,f
  4457     0788  3EFF               	addlw	-1
  4458     0789  1D03               	skipz
  4459     078A  2F83               	goto	u4785
  4460     078B                     l859:
  4461     078B  30FF               	movlw	255
  4462     078C  0529               	andwf	___xxtofl@arg+3,w
  4463     078D  1D03               	btfss	3,2
  4464     078E  2F90               	goto	u4791
  4465     078F  2F91               	goto	u4790
  4466     0790                     u4791:
  4467     0790  2F72               	goto	l3366
  4468     0791                     u4790:
  4469     0791  2F9D               	goto	l3374
  4470     0792                     l3372:
  4471     0792  3001               	movlw	1
  4472     0793  02A5               	subwf	___xxtofl@exp,f
  4473     0794  3001               	movlw	1
  4474     0795  00A0               	movwf	??___xxtofl
  4475     0796                     u4805:
  4476     0796  1003               	clrc
  4477     0797  0DA6               	rlf	___xxtofl@arg,f
  4478     0798  0DA7               	rlf	___xxtofl@arg+1,f
  4479     0799  0DA8               	rlf	___xxtofl@arg+2,f
  4480     079A  0DA9               	rlf	___xxtofl@arg+3,f
  4481     079B  0BA0               	decfsz	??___xxtofl,f
  4482     079C  2F96               	goto	u4805
  4483     079D                     l3374:
  4484     079D  1BA8               	btfsc	___xxtofl@arg+2,7
  4485     079E  2FA0               	goto	u4811
  4486     079F  2FA1               	goto	u4810
  4487     07A0                     u4811:
  4488     07A0  2FA7               	goto	l866
  4489     07A1                     u4810:
  4490     07A1                     l3376:
  4491     07A1  3002               	movlw	2
  4492     07A2  0225               	subwf	___xxtofl@exp,w
  4493     07A3  1803               	skipnc
  4494     07A4  2FA6               	goto	u4821
  4495     07A5  2FA7               	goto	u4820
  4496     07A6                     u4821:
  4497     07A6  2F92               	goto	l3372
  4498     07A7                     u4820:
  4499     07A7                     l866:
  4500     07A7  1825               	btfsc	___xxtofl@exp,0
  4501     07A8  2FAA               	goto	u4831
  4502     07A9  2FAB               	goto	u4830
  4503     07AA                     u4831:
  4504     07AA  2FB3               	goto	l867
  4505     07AB                     u4830:
  4506     07AB                     l3378:
  4507     07AB  30FF               	movlw	255
  4508     07AC  05A6               	andwf	___xxtofl@arg,f
  4509     07AD  30FF               	movlw	255
  4510     07AE  05A7               	andwf	___xxtofl@arg+1,f
  4511     07AF  307F               	movlw	127
  4512     07B0  05A8               	andwf	___xxtofl@arg+2,f
  4513     07B1  30FF               	movlw	255
  4514     07B2  05A9               	andwf	___xxtofl@arg+3,f
  4515     07B3                     l867:
  4516     07B3  1003               	clrc
  4517     07B4  0CA5               	rrf	___xxtofl@exp,f
  4518     07B5                     l3380:
  4519     07B5  0825               	movf	___xxtofl@exp,w
  4520     07B6  00A0               	movwf	??___xxtofl
  4521     07B7  01A1               	clrf	??___xxtofl+1
  4522     07B8  01A2               	clrf	??___xxtofl+2
  4523     07B9  01A3               	clrf	??___xxtofl+3
  4524     07BA  3018               	movlw	24
  4525     07BB                     u4845:
  4526     07BB  1003               	clrc
  4527     07BC  0DA0               	rlf	??___xxtofl,f
  4528     07BD  0DA1               	rlf	??___xxtofl+1,f
  4529     07BE  0DA2               	rlf	??___xxtofl+2,f
  4530     07BF  0DA3               	rlf	??___xxtofl+3,f
  4531     07C0                     u4840:
  4532     07C0  3EFF               	addlw	-1
  4533     07C1  1D03               	skipz
  4534     07C2  2FBB               	goto	u4845
  4535     07C3  0820               	movf	??___xxtofl,w
  4536     07C4  04A6               	iorwf	___xxtofl@arg,f
  4537     07C5  0821               	movf	??___xxtofl+1,w
  4538     07C6  04A7               	iorwf	___xxtofl@arg+1,f
  4539     07C7  0822               	movf	??___xxtofl+2,w
  4540     07C8  04A8               	iorwf	___xxtofl@arg+2,f
  4541     07C9  0823               	movf	??___xxtofl+3,w
  4542     07CA  04A9               	iorwf	___xxtofl@arg+3,f
  4543     07CB                     l3382:
  4544     07CB  0824               	movf	___xxtofl@sign,w
  4545     07CC  1903               	btfsc	3,2
  4546     07CD  2FCF               	goto	u4851
  4547     07CE  2FD0               	goto	u4850
  4548     07CF                     u4851:
  4549     07CF  2FD5               	goto	l3388
  4550     07D0                     u4850:
  4551     07D0                     l3384:
  4552     07D0  1FF5               	btfss	___xxtofl@val+3,7
  4553     07D1  2FD3               	goto	u4861
  4554     07D2  2FD4               	goto	u4860
  4555     07D3                     u4861:
  4556     07D3  2FD5               	goto	l3388
  4557     07D4                     u4860:
  4558     07D4                     l3386:
  4559     07D4  17A9               	bsf	___xxtofl@arg+3,7
  4560     07D5                     l3388:
  4561     07D5  0829               	movf	___xxtofl@arg+3,w
  4562     07D6  00F5               	movwf	?___xxtofl+3
  4563     07D7  0828               	movf	___xxtofl@arg+2,w
  4564     07D8  00F4               	movwf	?___xxtofl+2
  4565     07D9  0827               	movf	___xxtofl@arg+1,w
  4566     07DA  00F3               	movwf	?___xxtofl+1
  4567     07DB  0826               	movf	___xxtofl@arg,w
  4568     07DC  00F2               	movwf	?___xxtofl
  4569     07DD                     l855:
  4570     07DD  0008               	return
  4571     07DE                     __end_of___xxtofl:
  4572                           
  4573                           	psect	text8
  4574     157D                     __ptext8:	
  4575 ;; *************** function ___wmul *****************
  4576 ;; Defined at:
  4577 ;;		line 15 in file "C:\Program Files\Microchip\xc8\v3.00\pic\sources\c99\common\Umul16.c"
  4578 ;; Parameters:    Size  Location     Type
  4579 ;;  multiplier      2    2[COMMON] unsigned int 
  4580 ;;  multiplicand    2    4[COMMON] unsigned int 
  4581 ;; Auto vars:     Size  Location     Type
  4582 ;;  product         2    6[COMMON] unsigned int 
  4583 ;; Return value:  Size  Location     Type
  4584 ;;                  2    2[COMMON] unsigned int 
  4585 ;; Registers used:
  4586 ;;		wreg, status,2, status,0
  4587 ;; Tracked objects:
  4588 ;;		On entry : 0/0
  4589 ;;		On exit  : 0/0
  4590 ;;		Unchanged: 0/0
  4591 ;; Data sizes:     COMMON   BANK0   BANK1   BANK3   BANK2
  4592 ;;      Params:         4       0       0       0       0
  4593 ;;      Locals:         2       0       0       0       0
  4594 ;;      Temps:          0       0       0       0       0
  4595 ;;      Totals:         6       0       0       0       0
  4596 ;;Total ram usage:        6 bytes
  4597 ;; Hardware stack levels used: 1
  4598 ;; Hardware stack levels required when called: 1
  4599 ;; This function calls:
  4600 ;;		Nothing
  4601 ;; This function is called by:
  4602 ;;		_run_program
  4603 ;; This function uses a non-reentrant model
  4604 ;;
  4605                           
  4606     157D                     ___wmul:	
  4607                           ;psect for function ___wmul
  4608                           
  4609     157D                     l3050:	
  4610                           ;incstack = 0
  4611                           ; Regs used in ___wmul: [wreg+status,2+status,0]
  4612                           
  4613     157D  01F6               	clrf	___wmul@product
  4614     157E  01F7               	clrf	___wmul@product+1
  4615     157F                     l3052:
  4616     157F  1C72               	btfss	___wmul@multiplier,0
  4617     1580  2D82               	goto	u3961
  4618     1581  2D83               	goto	u3960
  4619     1582                     u3961:
  4620     1582  2D89               	goto	l412
  4621     1583                     u3960:
  4622     1583                     l3054:
  4623     1583  0874               	movf	___wmul@multiplicand,w
  4624     1584  07F6               	addwf	___wmul@product,f
  4625     1585  1803               	skipnc
  4626     1586  0AF7               	incf	___wmul@product+1,f
  4627     1587  0875               	movf	___wmul@multiplicand+1,w
  4628     1588  07F7               	addwf	___wmul@product+1,f
  4629     1589                     l412:
  4630     1589  3001               	movlw	1
  4631     158A                     u3975:
  4632     158A  1003               	clrc
  4633     158B  0DF4               	rlf	___wmul@multiplicand,f
  4634     158C  0DF5               	rlf	___wmul@multiplicand+1,f
  4635     158D  3EFF               	addlw	-1
  4636     158E  1D03               	skipz
  4637     158F  2D8A               	goto	u3975
  4638     1590                     l3056:
  4639     1590  3001               	movlw	1
  4640     1591                     u3985:
  4641     1591  1003               	clrc
  4642     1592  0CF3               	rrf	___wmul@multiplier+1,f
  4643     1593  0CF2               	rrf	___wmul@multiplier,f
  4644     1594  3EFF               	addlw	-1
  4645     1595  1D03               	skipz
  4646     1596  2D91               	goto	u3985
  4647     1597                     l3058:
  4648     1597  0872               	movf	___wmul@multiplier,w
  4649     1598  0473               	iorwf	___wmul@multiplier+1,w
  4650     1599  1D03               	btfss	3,2
  4651     159A  2D9C               	goto	u3991
  4652     159B  2D9D               	goto	u3990
  4653     159C                     u3991:
  4654     159C  2D7F               	goto	l3052
  4655     159D                     u3990:
  4656     159D                     l3060:
  4657     159D  0877               	movf	___wmul@product+1,w
  4658     159E  00F3               	movwf	?___wmul+1
  4659     159F  0876               	movf	___wmul@product,w
  4660     15A0  00F2               	movwf	?___wmul
  4661     15A1                     l414:
  4662     15A1  0008               	return
  4663     15A2                     __end_of___wmul:
  4664                           
  4665                           	psect	text9
  4666     178A                     __ptext9:	
  4667 ;; *************** function ___fltol *****************
  4668 ;; Defined at:
  4669 ;;		line 43 in file "C:\Program Files\Microchip\xc8\v3.00\pic\sources\c99\common\fltol.c"
  4670 ;; Parameters:    Size  Location     Type
  4671 ;;  f1              4   36[BANK0 ] unsigned int 
  4672 ;; Auto vars:     Size  Location     Type
  4673 ;;  exp1            1    7[COMMON] unsigned char 
  4674 ;;  sign1           1    6[COMMON] unsigned char 
  4675 ;; Return value:  Size  Location     Type
  4676 ;;                  4   36[BANK0 ] long 
  4677 ;; Registers used:
  4678 ;;		wreg, status,2, status,0
  4679 ;; Tracked objects:
  4680 ;;		On entry : 0/0
  4681 ;;		On exit  : 0/0
  4682 ;;		Unchanged: 0/0
  4683 ;; Data sizes:     COMMON   BANK0   BANK1   BANK3   BANK2
  4684 ;;      Params:         0       4       0       0       0
  4685 ;;      Locals:         2       0       0       0       0
  4686 ;;      Temps:          0       4       0       0       0
  4687 ;;      Totals:         2       8       0       0       0
  4688 ;;Total ram usage:       10 bytes
  4689 ;; Hardware stack levels used: 1
  4690 ;; Hardware stack levels required when called: 1
  4691 ;; This function calls:
  4692 ;;		Nothing
  4693 ;; This function is called by:
  4694 ;;		_run_program
  4695 ;; This function uses a non-reentrant model
  4696 ;;
  4697                           
  4698     178A                     ___fltol:	
  4699                           ;psect for function ___fltol
  4700                           
  4701     178A                     l3166:	
  4702                           ;incstack = 0
  4703                           ; Regs used in ___fltol: [wreg+status,2+status,0]
  4704                           
  4705     178A  1003               	clrc
  4706     178B  1283               	bcf	3,5	;RP0=0, select bank0
  4707     178C  1303               	bcf	3,6	;RP1=0, select bank0
  4708     178D  0D46               	rlf	___fltol@f1+2,w
  4709     178E  0D47               	rlf	___fltol@f1+3,w
  4710     178F  00F7               	movwf	___fltol@exp1
  4711     1790  0877               	movf	___fltol@exp1,w
  4712     1791  1D03               	btfss	3,2
  4713     1792  2F94               	goto	u4261
  4714     1793  2F95               	goto	u4260
  4715     1794                     u4261:
  4716     1794  2F9E               	goto	l3172
  4717     1795                     u4260:
  4718     1795                     l3168:
  4719     1795  3000               	movlw	0
  4720     1796  00C7               	movwf	?___fltol+3
  4721     1797  3000               	movlw	0
  4722     1798  00C6               	movwf	?___fltol+2
  4723     1799  3000               	movlw	0
  4724     179A  00C5               	movwf	?___fltol+1
  4725     179B  3000               	movlw	0
  4726     179C  00C4               	movwf	?___fltol
  4727     179D  2FFF               	goto	l606
  4728     179E                     l3172:
  4729     179E  0844               	movf	___fltol@f1,w
  4730     179F  00C8               	movwf	??___fltol
  4731     17A0  0845               	movf	___fltol@f1+1,w
  4732     17A1  00C9               	movwf	??___fltol+1
  4733     17A2  0846               	movf	___fltol@f1+2,w
  4734     17A3  00CA               	movwf	??___fltol+2
  4735     17A4  0847               	movf	___fltol@f1+3,w
  4736     17A5  00CB               	movwf	??___fltol+3
  4737     17A6  301F               	movlw	31
  4738     17A7                     u4275:
  4739     17A7  1003               	clrc
  4740     17A8  0CCB               	rrf	??___fltol+3,f
  4741     17A9  0CCA               	rrf	??___fltol+2,f
  4742     17AA  0CC9               	rrf	??___fltol+1,f
  4743     17AB  0CC8               	rrf	??___fltol,f
  4744     17AC                     u4270:
  4745     17AC  3EFF               	addlw	-1
  4746     17AD  1D03               	skipz
  4747     17AE  2FA7               	goto	u4275
  4748     17AF  0848               	movf	??___fltol,w
  4749     17B0  00F6               	movwf	___fltol@sign1
  4750     17B1                     l3174:
  4751     17B1  17C6               	bsf	___fltol@f1+2,7
  4752     17B2                     l3176:
  4753     17B2  30FF               	movlw	255
  4754     17B3  05C4               	andwf	___fltol@f1,f
  4755     17B4  30FF               	movlw	255
  4756     17B5  05C5               	andwf	___fltol@f1+1,f
  4757     17B6  30FF               	movlw	255
  4758     17B7  05C6               	andwf	___fltol@f1+2,f
  4759     17B8  3000               	movlw	0
  4760     17B9  05C7               	andwf	___fltol@f1+3,f
  4761     17BA                     l3178:
  4762     17BA  3096               	movlw	150
  4763     17BB  02F7               	subwf	___fltol@exp1,f
  4764     17BC                     l3180:
  4765     17BC  1FF7               	btfss	___fltol@exp1,7
  4766     17BD  2FBF               	goto	u4281
  4767     17BE  2FC0               	goto	u4280
  4768     17BF                     u4281:
  4769     17BF  2FD8               	goto	l3190
  4770     17C0                     u4280:
  4771     17C0                     l3182:
  4772     17C0  0877               	movf	___fltol@exp1,w
  4773     17C1  3A80               	xorlw	128
  4774     17C2  3E97               	addlw	151
  4775     17C3  1803               	skipnc
  4776     17C4  2FC6               	goto	u4291
  4777     17C5  2FC7               	goto	u4290
  4778     17C6                     u4291:
  4779     17C6  2FC8               	goto	l3188
  4780     17C7                     u4290:
  4781     17C7  2F95               	goto	l3168
  4782     17C8                     l3188:
  4783     17C8  3001               	movlw	1
  4784     17C9                     u4305:
  4785     17C9  1003               	clrc
  4786     17CA  0CC7               	rrf	___fltol@f1+3,f
  4787     17CB  0CC6               	rrf	___fltol@f1+2,f
  4788     17CC  0CC5               	rrf	___fltol@f1+1,f
  4789     17CD  0CC4               	rrf	___fltol@f1,f
  4790     17CE  3EFF               	addlw	-1
  4791     17CF  1D03               	skipz
  4792     17D0  2FC9               	goto	u4305
  4793     17D1  3001               	movlw	1
  4794     17D2  07F7               	addwf	___fltol@exp1,f
  4795     17D3  1D03               	btfss	3,2
  4796     17D4  2FD6               	goto	u4311
  4797     17D5  2FD7               	goto	u4310
  4798     17D6                     u4311:
  4799     17D6  2FC8               	goto	l3188
  4800     17D7                     u4310:
  4801     17D7  2FEF               	goto	l3198
  4802     17D8                     l3190:
  4803     17D8  3020               	movlw	32
  4804     17D9  0277               	subwf	___fltol@exp1,w
  4805     17DA  1C03               	skipc
  4806     17DB  2FDD               	goto	u4321
  4807     17DC  2FDE               	goto	u4320
  4808     17DD                     u4321:
  4809     17DD  2FEA               	goto	l613
  4810     17DE                     u4320:
  4811     17DE  2F95               	goto	l3168
  4812     17DF                     l3196:
  4813     17DF  3001               	movlw	1
  4814     17E0  00C8               	movwf	??___fltol
  4815     17E1                     u4335:
  4816     17E1  1003               	clrc
  4817     17E2  0DC4               	rlf	___fltol@f1,f
  4818     17E3  0DC5               	rlf	___fltol@f1+1,f
  4819     17E4  0DC6               	rlf	___fltol@f1+2,f
  4820     17E5  0DC7               	rlf	___fltol@f1+3,f
  4821     17E6  0BC8               	decfsz	??___fltol,f
  4822     17E7  2FE1               	goto	u4335
  4823     17E8  3001               	movlw	1
  4824     17E9  02F7               	subwf	___fltol@exp1,f
  4825     17EA                     l613:
  4826     17EA  0877               	movf	___fltol@exp1,w
  4827     17EB  1D03               	btfss	3,2
  4828     17EC  2FEE               	goto	u4341
  4829     17ED  2FEF               	goto	u4340
  4830     17EE                     u4341:
  4831     17EE  2FDF               	goto	l3196
  4832     17EF                     u4340:
  4833     17EF                     l3198:
  4834     17EF  0876               	movf	___fltol@sign1,w
  4835     17F0  1903               	btfsc	3,2
  4836     17F1  2FF3               	goto	u4351
  4837     17F2  2FF4               	goto	u4350
  4838     17F3                     u4351:
  4839     17F3  2FFF               	goto	l616
  4840     17F4                     u4350:
  4841     17F4                     l3200:
  4842     17F4  09C4               	comf	___fltol@f1,f
  4843     17F5  09C5               	comf	___fltol@f1+1,f
  4844     17F6  09C6               	comf	___fltol@f1+2,f
  4845     17F7  09C7               	comf	___fltol@f1+3,f
  4846     17F8  0AC4               	incf	___fltol@f1,f
  4847     17F9  1903               	skipnz
  4848     17FA  0AC5               	incf	___fltol@f1+1,f
  4849     17FB  1903               	skipnz
  4850     17FC  0AC6               	incf	___fltol@f1+2,f
  4851     17FD  1903               	skipnz
  4852     17FE  0AC7               	incf	___fltol@f1+3,f
  4853     17FF                     l616:
  4854     17FF                     l606:
  4855     17FF  0008               	return
  4856     1800                     __end_of___fltol:
  4857                           
  4858                           	psect	text10
  4859     1559                     __ptext10:	
  4860 ;; *************** function ___flsub *****************
  4861 ;; Defined at:
  4862 ;;		line 242 in file "C:\Program Files\Microchip\xc8\v3.00\pic\sources\c99\common\sprcadd.c"
  4863 ;; Parameters:    Size  Location     Type
  4864 ;;  a               4   36[BANK0 ] long 
  4865 ;;  b               4   40[BANK0 ] long 
  4866 ;; Auto vars:     Size  Location     Type
  4867 ;;		None
  4868 ;; Return value:  Size  Location     Type
  4869 ;;                  4   36[BANK0 ] long 
  4870 ;; Registers used:
  4871 ;;		wreg, status,2, status,0, btemp+1, pclath, cstack
  4872 ;; Tracked objects:
  4873 ;;		On entry : 0/0
  4874 ;;		On exit  : 0/0
  4875 ;;		Unchanged: 0/0
  4876 ;; Data sizes:     COMMON   BANK0   BANK1   BANK3   BANK2
  4877 ;;      Params:         0       8       0       0       0
  4878 ;;      Locals:         0       0       0       0       0
  4879 ;;      Temps:          0       0       0       0       0
  4880 ;;      Totals:         0       8       0       0       0
  4881 ;;Total ram usage:        8 bytes
  4882 ;; Hardware stack levels used: 1
  4883 ;; Hardware stack levels required when called: 2
  4884 ;; This function calls:
  4885 ;;		___fladd
  4886 ;; This function is called by:
  4887 ;;		_run_program
  4888 ;; This function uses a non-reentrant model
  4889 ;;
  4890                           
  4891     1559                     ___flsub:	
  4892                           ;psect for function ___flsub
  4893                           
  4894     1559                     l3202:	
  4895                           ;incstack = 0
  4896                           ; Regs used in ___flsub: [wreg+status,2+status,0+btemp+1+pclath+cstack]
  4897                           
  4898     1559  3080               	movlw	128
  4899     155A  1283               	bcf	3,5	;RP0=0, select bank0
  4900     155B  1303               	bcf	3,6	;RP1=0, select bank0
  4901     155C  06C7               	xorwf	___flsub@a+3,f
  4902     155D                     l3204:
  4903     155D  084B               	movf	___flsub@b+3,w
  4904     155E  00A3               	movwf	___fladd@b+3
  4905     155F  084A               	movf	___flsub@b+2,w
  4906     1560  00A2               	movwf	___fladd@b+2
  4907     1561  0849               	movf	___flsub@b+1,w
  4908     1562  00A1               	movwf	___fladd@b+1
  4909     1563  0848               	movf	___flsub@b,w
  4910     1564  00A0               	movwf	___fladd@b
  4911     1565  0847               	movf	___flsub@a+3,w
  4912     1566  00A7               	movwf	___fladd@a+3
  4913     1567  0846               	movf	___flsub@a+2,w
  4914     1568  00A6               	movwf	___fladd@a+2
  4915     1569  0845               	movf	___flsub@a+1,w
  4916     156A  00A5               	movwf	___fladd@a+1
  4917     156B  0844               	movf	___flsub@a,w
  4918     156C  00A4               	movwf	___fladd@a
  4919     156D  120A  158A  25A8  160A  118A  	fcall	___fladd
  4920     1572  1283               	bcf	3,5	;RP0=0, select bank0
  4921     1573  1303               	bcf	3,6	;RP1=0, select bank0
  4922     1574  0823               	movf	?___fladd+3,w
  4923     1575  00C7               	movwf	?___flsub+3
  4924     1576  0822               	movf	?___fladd+2,w
  4925     1577  00C6               	movwf	?___flsub+2
  4926     1578  0821               	movf	?___fladd+1,w
  4927     1579  00C5               	movwf	?___flsub+1
  4928     157A  0820               	movf	?___fladd,w
  4929     157B  00C4               	movwf	?___flsub
  4930     157C                     l759:
  4931     157C  0008               	return
  4932     157D                     __end_of___flsub:
  4933                           
  4934                           	psect	text11
  4935     0DA8                     __ptext11:	
  4936 ;; *************** function ___fladd *****************
  4937 ;; Defined at:
  4938 ;;		line 10 in file "C:\Program Files\Microchip\xc8\v3.00\pic\sources\c99\common\sprcadd.c"
  4939 ;; Parameters:    Size  Location     Type
  4940 ;;  b               4    0[BANK0 ] long 
  4941 ;;  a               4    4[BANK0 ] long 
  4942 ;; Auto vars:     Size  Location     Type
  4943 ;;  grs             1    5[COMMON] unsigned char 
  4944 ;;  bexp            1    4[COMMON] unsigned char 
  4945 ;;  aexp            1    3[COMMON] unsigned char 
  4946 ;;  signs           1    2[COMMON] unsigned char 
  4947 ;; Return value:  Size  Location     Type
  4948 ;;                  4    0[BANK0 ] unsigned char 
  4949 ;; Registers used:
  4950 ;;		wreg, status,2, status,0, btemp+1
  4951 ;; Tracked objects:
  4952 ;;		On entry : 0/0
  4953 ;;		On exit  : 0/0
  4954 ;;		Unchanged: 0/0
  4955 ;; Data sizes:     COMMON   BANK0   BANK1   BANK3   BANK2
  4956 ;;      Params:         0       8       0       0       0
  4957 ;;      Locals:         4       0       0       0       0
  4958 ;;      Temps:          0       8       0       0       0
  4959 ;;      Totals:         4      16       0       0       0
  4960 ;;Total ram usage:       20 bytes
  4961 ;; Hardware stack levels used: 1
  4962 ;; Hardware stack levels required when called: 1
  4963 ;; This function calls:
  4964 ;;		Nothing
  4965 ;; This function is called by:
  4966 ;;		___flsub
  4967 ;; This function uses a non-reentrant model
  4968 ;;
  4969                           
  4970     0DA8                     ___fladd:	
  4971                           ;psect for function ___fladd
  4972                           
  4973     0DA8                     l2800:	
  4974                           ;incstack = 0
  4975                           ; Regs used in ___fladd: [wreg+status,2+status,0+btemp+1]
  4976                           
  4977     0DA8  1283               	bcf	3,5	;RP0=0, select bank0
  4978     0DA9  1303               	bcf	3,6	;RP1=0, select bank0
  4979     0DAA  0823               	movf	___fladd@b+3,w
  4980     0DAB  00F2               	movwf	___fladd@signs
  4981     0DAC                     l2802:
  4982     0DAC  3080               	movlw	128
  4983     0DAD  05F2               	andwf	___fladd@signs,f
  4984     0DAE                     l2804:
  4985     0DAE  0823               	movf	___fladd@b+3,w
  4986     0DAF  00A8               	movwf	??___fladd
  4987     0DB0  0728               	addwf	??___fladd,w
  4988     0DB1  00F4               	movwf	___fladd@bexp
  4989     0DB2                     l2806:
  4990     0DB2  1FA2               	btfss	___fladd@b+2,7
  4991     0DB3  2DB5               	goto	u3451
  4992     0DB4  2DB6               	goto	u3450
  4993     0DB5                     u3451:
  4994     0DB5  2DB7               	goto	l2810
  4995     0DB6                     u3450:
  4996     0DB6                     l2808:
  4997     0DB6  1474               	bsf	___fladd@bexp,0
  4998     0DB7                     l2810:
  4999     0DB7  0874               	movf	___fladd@bexp,w
  5000     0DB8  1903               	btfsc	3,2
  5001     0DB9  2DBB               	goto	u3461
  5002     0DBA  2DBC               	goto	u3460
  5003     0DBB                     u3461:
  5004     0DBB  2DCC               	goto	l2820
  5005     0DBC                     u3460:
  5006     0DBC                     l2812:
  5007     0DBC  0A74               	incf	___fladd@bexp,w
  5008     0DBD  1D03               	btfss	3,2
  5009     0DBE  2DC0               	goto	u3471
  5010     0DBF  2DC1               	goto	u3470
  5011     0DC0                     u3471:
  5012     0DC0  2DC9               	goto	l2816
  5013     0DC1                     u3470:
  5014     0DC1                     l2814:
  5015     0DC1  3000               	movlw	0
  5016     0DC2  00A3               	movwf	___fladd@b+3
  5017     0DC3  3000               	movlw	0
  5018     0DC4  00A2               	movwf	___fladd@b+2
  5019     0DC5  3000               	movlw	0
  5020     0DC6  00A1               	movwf	___fladd@b+1
  5021     0DC7  3000               	movlw	0
  5022     0DC8  00A0               	movwf	___fladd@b
  5023     0DC9                     l2816:
  5024     0DC9  17A2               	bsf	___fladd@b+2,7
  5025     0DCA                     l2818:
  5026     0DCA  01A3               	clrf	___fladd@b+3
  5027     0DCB  2DD4               	goto	l708
  5028     0DCC                     l2820:
  5029     0DCC  3000               	movlw	0
  5030     0DCD  00A3               	movwf	___fladd@b+3
  5031     0DCE  3000               	movlw	0
  5032     0DCF  00A2               	movwf	___fladd@b+2
  5033     0DD0  3000               	movlw	0
  5034     0DD1  00A1               	movwf	___fladd@b+1
  5035     0DD2  3000               	movlw	0
  5036     0DD3  00A0               	movwf	___fladd@b
  5037     0DD4                     l708:
  5038     0DD4  0827               	movf	___fladd@a+3,w
  5039     0DD5  00F3               	movwf	___fladd@aexp
  5040     0DD6                     l2822:
  5041     0DD6  3080               	movlw	128
  5042     0DD7  05F3               	andwf	___fladd@aexp,f
  5043     0DD8                     l2824:
  5044     0DD8  0873               	movf	___fladd@aexp,w
  5045     0DD9  0672               	xorwf	___fladd@signs,w
  5046     0DDA  1903               	skipnz
  5047     0DDB  2DDD               	goto	u3481
  5048     0DDC  2DDE               	goto	u3480
  5049     0DDD                     u3481:
  5050     0DDD  2DDF               	goto	l2828
  5051     0DDE                     u3480:
  5052     0DDE                     l2826:
  5053     0DDE  1772               	bsf	___fladd@signs,6
  5054     0DDF                     l2828:
  5055     0DDF  0827               	movf	___fladd@a+3,w
  5056     0DE0  00A8               	movwf	??___fladd
  5057     0DE1  0728               	addwf	??___fladd,w
  5058     0DE2  00F3               	movwf	___fladd@aexp
  5059     0DE3                     l2830:
  5060     0DE3  1FA6               	btfss	___fladd@a+2,7
  5061     0DE4  2DE6               	goto	u3491
  5062     0DE5  2DE7               	goto	u3490
  5063     0DE6                     u3491:
  5064     0DE6  2DE8               	goto	l2834
  5065     0DE7                     u3490:
  5066     0DE7                     l2832:
  5067     0DE7  1473               	bsf	___fladd@aexp,0
  5068     0DE8                     l2834:
  5069     0DE8  0873               	movf	___fladd@aexp,w
  5070     0DE9  1903               	btfsc	3,2
  5071     0DEA  2DEC               	goto	u3501
  5072     0DEB  2DED               	goto	u3500
  5073     0DEC                     u3501:
  5074     0DEC  2DFD               	goto	l2844
  5075     0DED                     u3500:
  5076     0DED                     l2836:
  5077     0DED  0A73               	incf	___fladd@aexp,w
  5078     0DEE  1D03               	btfss	3,2
  5079     0DEF  2DF1               	goto	u3511
  5080     0DF0  2DF2               	goto	u3510
  5081     0DF1                     u3511:
  5082     0DF1  2DFA               	goto	l2840
  5083     0DF2                     u3510:
  5084     0DF2                     l2838:
  5085     0DF2  3000               	movlw	0
  5086     0DF3  00A7               	movwf	___fladd@a+3
  5087     0DF4  3000               	movlw	0
  5088     0DF5  00A6               	movwf	___fladd@a+2
  5089     0DF6  3000               	movlw	0
  5090     0DF7  00A5               	movwf	___fladd@a+1
  5091     0DF8  3000               	movlw	0
  5092     0DF9  00A4               	movwf	___fladd@a
  5093     0DFA                     l2840:
  5094     0DFA  17A6               	bsf	___fladd@a+2,7
  5095     0DFB                     l2842:
  5096     0DFB  01A7               	clrf	___fladd@a+3
  5097     0DFC  2E05               	goto	l713
  5098     0DFD                     l2844:
  5099     0DFD  3000               	movlw	0
  5100     0DFE  00A7               	movwf	___fladd@a+3
  5101     0DFF  3000               	movlw	0
  5102     0E00  00A6               	movwf	___fladd@a+2
  5103     0E01  3000               	movlw	0
  5104     0E02  00A5               	movwf	___fladd@a+1
  5105     0E03  3000               	movlw	0
  5106     0E04  00A4               	movwf	___fladd@a
  5107     0E05                     l713:
  5108     0E05  0874               	movf	___fladd@bexp,w
  5109     0E06  0273               	subwf	___fladd@aexp,w
  5110     0E07  1803               	skipnc
  5111     0E08  2E0A               	goto	u3521
  5112     0E09  2E0B               	goto	u3520
  5113     0E0A                     u3521:
  5114     0E0A  2E2F               	goto	l2880
  5115     0E0B                     u3520:
  5116     0E0B                     l2846:
  5117     0E0B  1F72               	btfss	___fladd@signs,6
  5118     0E0C  2E0E               	goto	u3531
  5119     0E0D  2E0F               	goto	u3530
  5120     0E0E                     u3531:
  5121     0E0E  2E11               	goto	l2850
  5122     0E0F                     u3530:
  5123     0E0F                     l2848:
  5124     0E0F  3080               	movlw	128
  5125     0E10  06F2               	xorwf	___fladd@signs,f
  5126     0E11                     l2850:
  5127     0E11  0874               	movf	___fladd@bexp,w
  5128     0E12  00F5               	movwf	___fladd@grs
  5129     0E13                     l2852:
  5130     0E13  0873               	movf	___fladd@aexp,w
  5131     0E14  00F4               	movwf	___fladd@bexp
  5132     0E15                     l2854:
  5133     0E15  0875               	movf	___fladd@grs,w
  5134     0E16  00F3               	movwf	___fladd@aexp
  5135     0E17                     l2856:
  5136     0E17  0820               	movf	___fladd@b,w
  5137     0E18  00F5               	movwf	___fladd@grs
  5138     0E19                     l2858:
  5139     0E19  0824               	movf	___fladd@a,w
  5140     0E1A  00A0               	movwf	___fladd@b
  5141     0E1B                     l2860:
  5142     0E1B  0875               	movf	___fladd@grs,w
  5143     0E1C  00A4               	movwf	___fladd@a
  5144     0E1D                     l2862:
  5145     0E1D  0821               	movf	___fladd@b+1,w
  5146     0E1E  00F5               	movwf	___fladd@grs
  5147     0E1F                     l2864:
  5148     0E1F  0825               	movf	___fladd@a+1,w
  5149     0E20  00A1               	movwf	___fladd@b+1
  5150     0E21                     l2866:
  5151     0E21  0875               	movf	___fladd@grs,w
  5152     0E22  00A5               	movwf	___fladd@a+1
  5153     0E23                     l2868:
  5154     0E23  0822               	movf	___fladd@b+2,w
  5155     0E24  00F5               	movwf	___fladd@grs
  5156     0E25                     l2870:
  5157     0E25  0826               	movf	___fladd@a+2,w
  5158     0E26  00A2               	movwf	___fladd@b+2
  5159     0E27                     l2872:
  5160     0E27  0875               	movf	___fladd@grs,w
  5161     0E28  00A6               	movwf	___fladd@a+2
  5162     0E29                     l2874:
  5163     0E29  0823               	movf	___fladd@b+3,w
  5164     0E2A  00F5               	movwf	___fladd@grs
  5165     0E2B                     l2876:
  5166     0E2B  0827               	movf	___fladd@a+3,w
  5167     0E2C  00A3               	movwf	___fladd@b+3
  5168     0E2D                     l2878:
  5169     0E2D  0875               	movf	___fladd@grs,w
  5170     0E2E  00A7               	movwf	___fladd@a+3
  5171     0E2F                     l2880:
  5172     0E2F  01F5               	clrf	___fladd@grs
  5173     0E30                     l2882:
  5174     0E30  0873               	movf	___fladd@aexp,w
  5175     0E31  00A8               	movwf	??___fladd
  5176     0E32  01A9               	clrf	??___fladd+1
  5177     0E33  0829               	movf	??___fladd+1,w
  5178     0E34  00AB               	movwf	??___fladd+3
  5179     0E35  0874               	movf	___fladd@bexp,w
  5180     0E36  0228               	subwf	??___fladd,w
  5181     0E37  00AA               	movwf	??___fladd+2
  5182     0E38  1C03               	skipc
  5183     0E39  03AB               	decf	??___fladd+3,f
  5184     0E3A  082B               	movf	??___fladd+3,w
  5185     0E3B  3A80               	xorlw	128
  5186     0E3C  00FF               	movwf	btemp+1
  5187     0E3D  3080               	movlw	128
  5188     0E3E  027F               	subwf	btemp+1,w
  5189     0E3F  1D03               	skipz
  5190     0E40  2E43               	goto	u3545
  5191     0E41  301A               	movlw	26
  5192     0E42  022A               	subwf	??___fladd+2,w
  5193     0E43                     u3545:
  5194     0E43  1C03               	skipc
  5195     0E44  2E46               	goto	u3541
  5196     0E45  2E47               	goto	u3540
  5197     0E46                     u3541:
  5198     0E46  2E80               	goto	l2898
  5199     0E47                     u3540:
  5200     0E47                     l2884:
  5201     0E47  1283               	bcf	3,5	;RP0=0, select bank0
  5202     0E48  1303               	bcf	3,6	;RP1=0, select bank0
  5203     0E49  0823               	movf	___fladd@b+3,w
  5204     0E4A  0422               	iorwf	___fladd@b+2,w
  5205     0E4B  0421               	iorwf	___fladd@b+1,w
  5206     0E4C  0420               	iorwf	___fladd@b,w
  5207     0E4D  1D03               	skipz
  5208     0E4E  2E50               	goto	u3551
  5209     0E4F  2E52               	goto	u3550
  5210     0E50                     u3551:
  5211     0E50  3001               	movlw	1
  5212     0E51  2E53               	goto	u3560
  5213     0E52                     u3550:
  5214     0E52  3000               	movlw	0
  5215     0E53                     u3560:
  5216     0E53  00F5               	movwf	___fladd@grs
  5217     0E54  3000               	movlw	0
  5218     0E55  00A3               	movwf	___fladd@b+3
  5219     0E56  3000               	movlw	0
  5220     0E57  00A2               	movwf	___fladd@b+2
  5221     0E58  3000               	movlw	0
  5222     0E59  00A1               	movwf	___fladd@b+1
  5223     0E5A  3000               	movlw	0
  5224     0E5B  00A0               	movwf	___fladd@b
  5225     0E5C  0873               	movf	___fladd@aexp,w
  5226     0E5D  00F4               	movwf	___fladd@bexp
  5227     0E5E  2E86               	goto	l717
  5228     0E5F                     l719:
  5229     0E5F  1C75               	btfss	___fladd@grs,0
  5230     0E60  2E62               	goto	u3571
  5231     0E61  2E63               	goto	u3570
  5232     0E62                     u3571:
  5233     0E62  2E6C               	goto	l2888
  5234     0E63                     u3570:
  5235     0E63                     l2886:
  5236     0E63  0875               	movf	___fladd@grs,w
  5237     0E64  1283               	bcf	3,5	;RP0=0, select bank0
  5238     0E65  1303               	bcf	3,6	;RP1=0, select bank0
  5239     0E66  00A8               	movwf	??___fladd
  5240     0E67  1003               	clrc
  5241     0E68  0C28               	rrf	??___fladd,w
  5242     0E69  3801               	iorlw	1
  5243     0E6A  00F5               	movwf	___fladd@grs
  5244     0E6B  2E6E               	goto	l2890
  5245     0E6C                     l2888:
  5246     0E6C  1003               	clrc
  5247     0E6D  0CF5               	rrf	___fladd@grs,f
  5248     0E6E                     l2890:
  5249     0E6E  1283               	bcf	3,5	;RP0=0, select bank0
  5250     0E6F  1303               	bcf	3,6	;RP1=0, select bank0
  5251     0E70  1C20               	btfss	___fladd@b,0
  5252     0E71  2E73               	goto	u3581
  5253     0E72  2E74               	goto	u3580
  5254     0E73                     u3581:
  5255     0E73  2E75               	goto	l2894
  5256     0E74                     u3580:
  5257     0E74                     l2892:
  5258     0E74  17F5               	bsf	___fladd@grs,7
  5259     0E75                     l2894:
  5260     0E75  3001               	movlw	1
  5261     0E76  00A8               	movwf	??___fladd
  5262     0E77                     u3595:
  5263     0E77  0D23               	rlf	___fladd@b+3,w
  5264     0E78  0CA3               	rrf	___fladd@b+3,f
  5265     0E79  0CA2               	rrf	___fladd@b+2,f
  5266     0E7A  0CA1               	rrf	___fladd@b+1,f
  5267     0E7B  0CA0               	rrf	___fladd@b,f
  5268     0E7C  0BA8               	decfsz	??___fladd& (0+127),f
  5269     0E7D  2E77               	goto	u3595
  5270     0E7E                     l2896:
  5271     0E7E  3001               	movlw	1
  5272     0E7F  07F4               	addwf	___fladd@bexp,f
  5273     0E80                     l2898:
  5274     0E80  0873               	movf	___fladd@aexp,w
  5275     0E81  0274               	subwf	___fladd@bexp,w
  5276     0E82  1C03               	skipc
  5277     0E83  2E85               	goto	u3601
  5278     0E84  2E86               	goto	u3600
  5279     0E85                     u3601:
  5280     0E85  2E5F               	goto	l719
  5281     0E86                     u3600:
  5282     0E86                     l717:
  5283     0E86  1B72               	btfsc	___fladd@signs,6
  5284     0E87  2E89               	goto	u3611
  5285     0E88  2E8A               	goto	u3610
  5286     0E89                     u3611:
  5287     0E89  2ED5               	goto	l2924
  5288     0E8A                     u3610:
  5289     0E8A                     l2900:
  5290     0E8A  0874               	movf	___fladd@bexp,w
  5291     0E8B  1D03               	btfss	3,2
  5292     0E8C  2E8E               	goto	u3621
  5293     0E8D  2E8F               	goto	u3620
  5294     0E8E                     u3621:
  5295     0E8E  2E9A               	goto	l2906
  5296     0E8F                     u3620:
  5297     0E8F                     l2902:
  5298     0E8F  3000               	movlw	0
  5299     0E90  1283               	bcf	3,5	;RP0=0, select bank0
  5300     0E91  1303               	bcf	3,6	;RP1=0, select bank0
  5301     0E92  00A3               	movwf	?___fladd+3
  5302     0E93  3000               	movlw	0
  5303     0E94  00A2               	movwf	?___fladd+2
  5304     0E95  3000               	movlw	0
  5305     0E96  00A1               	movwf	?___fladd+1
  5306     0E97  3000               	movlw	0
  5307     0E98  00A0               	movwf	?___fladd
  5308     0E99  2FFF               	goto	l726
  5309     0E9A                     l2906:
  5310     0E9A  1283               	bcf	3,5	;RP0=0, select bank0
  5311     0E9B  1303               	bcf	3,6	;RP1=0, select bank0
  5312     0E9C  0824               	movf	___fladd@a,w
  5313     0E9D  07A0               	addwf	___fladd@b,f
  5314     0E9E  0825               	movf	___fladd@a+1,w
  5315     0E9F  1103               	clrz
  5316     0EA0  1803               	skipnc
  5317     0EA1  3E01               	addlw	1
  5318     0EA2  1903               	skipnz
  5319     0EA3  2EA5               	goto	u3631
  5320     0EA4  07A1               	addwf	___fladd@b+1,f
  5321     0EA5                     u3631:
  5322     0EA5  0826               	movf	___fladd@a+2,w
  5323     0EA6  1103               	clrz
  5324     0EA7  1803               	skipnc
  5325     0EA8  3E01               	addlw	1
  5326     0EA9  1903               	skipnz
  5327     0EAA  2EAC               	goto	u3632
  5328     0EAB  07A2               	addwf	___fladd@b+2,f
  5329     0EAC                     u3632:
  5330     0EAC  0827               	movf	___fladd@a+3,w
  5331     0EAD  1103               	clrz
  5332     0EAE  1803               	skipnc
  5333     0EAF  3E01               	addlw	1
  5334     0EB0  1903               	skipnz
  5335     0EB1  2EB3               	goto	u3633
  5336     0EB2  07A3               	addwf	___fladd@b+3,f
  5337     0EB3                     u3633:
  5338     0EB3                     l2908:
  5339     0EB3  1C23               	btfss	___fladd@b+3,0
  5340     0EB4  2EB6               	goto	u3641
  5341     0EB5  2EB7               	goto	u3640
  5342     0EB6                     u3641:
  5343     0EB6  2F8B               	goto	l2960
  5344     0EB7                     u3640:
  5345     0EB7                     l2910:
  5346     0EB7  1C75               	btfss	___fladd@grs,0
  5347     0EB8  2EBA               	goto	u3651
  5348     0EB9  2EBB               	goto	u3650
  5349     0EBA                     u3651:
  5350     0EBA  2EC2               	goto	l2914
  5351     0EBB                     u3650:
  5352     0EBB                     l2912:
  5353     0EBB  0875               	movf	___fladd@grs,w
  5354     0EBC  00A8               	movwf	??___fladd
  5355     0EBD  1003               	clrc
  5356     0EBE  0C28               	rrf	??___fladd,w
  5357     0EBF  3801               	iorlw	1
  5358     0EC0  00F5               	movwf	___fladd@grs
  5359     0EC1  2EC4               	goto	l2916
  5360     0EC2                     l2914:
  5361     0EC2  1003               	clrc
  5362     0EC3  0CF5               	rrf	___fladd@grs,f
  5363     0EC4                     l2916:
  5364     0EC4  1C20               	btfss	___fladd@b,0
  5365     0EC5  2EC7               	goto	u3661
  5366     0EC6  2EC8               	goto	u3660
  5367     0EC7                     u3661:
  5368     0EC7  2EC9               	goto	l2920
  5369     0EC8                     u3660:
  5370     0EC8                     l2918:
  5371     0EC8  17F5               	bsf	___fladd@grs,7
  5372     0EC9                     l2920:
  5373     0EC9  3001               	movlw	1
  5374     0ECA  00A8               	movwf	??___fladd
  5375     0ECB                     u3675:
  5376     0ECB  0D23               	rlf	___fladd@b+3,w
  5377     0ECC  0CA3               	rrf	___fladd@b+3,f
  5378     0ECD  0CA2               	rrf	___fladd@b+2,f
  5379     0ECE  0CA1               	rrf	___fladd@b+1,f
  5380     0ECF  0CA0               	rrf	___fladd@b,f
  5381     0ED0  0BA8               	decfsz	??___fladd& (0+127),f
  5382     0ED1  2ECB               	goto	u3675
  5383     0ED2                     l2922:
  5384     0ED2  3001               	movlw	1
  5385     0ED3  07F4               	addwf	___fladd@bexp,f
  5386     0ED4  2F8B               	goto	l2960
  5387     0ED5                     l2924:
  5388     0ED5  1283               	bcf	3,5	;RP0=0, select bank0
  5389     0ED6  1303               	bcf	3,6	;RP1=0, select bank0
  5390     0ED7  0823               	movf	___fladd@b+3,w
  5391     0ED8  3A80               	xorlw	128
  5392     0ED9  00FF               	movwf	btemp+1
  5393     0EDA  0827               	movf	___fladd@a+3,w
  5394     0EDB  3A80               	xorlw	128
  5395     0EDC  027F               	subwf	btemp+1,w
  5396     0EDD  1D03               	skipz
  5397     0EDE  2EE9               	goto	u3683
  5398     0EDF  0826               	movf	___fladd@a+2,w
  5399     0EE0  0222               	subwf	___fladd@b+2,w
  5400     0EE1  1D03               	skipz
  5401     0EE2  2EE9               	goto	u3683
  5402     0EE3  0825               	movf	___fladd@a+1,w
  5403     0EE4  0221               	subwf	___fladd@b+1,w
  5404     0EE5  1D03               	skipz
  5405     0EE6  2EE9               	goto	u3683
  5406     0EE7  0824               	movf	___fladd@a,w
  5407     0EE8  0220               	subwf	___fladd@b,w
  5408     0EE9                     u3683:
  5409     0EE9  1803               	skipnc
  5410     0EEA  2EEC               	goto	u3681
  5411     0EEB  2EED               	goto	u3680
  5412     0EEC                     u3681:
  5413     0EEC  2F44               	goto	l2936
  5414     0EED                     u3680:
  5415     0EED                     l2926:
  5416     0EED  30FF               	movlw	255
  5417     0EEE  00A8               	movwf	??___fladd
  5418     0EEF  30FF               	movlw	255
  5419     0EF0  00A9               	movwf	??___fladd+1
  5420     0EF1  30FF               	movlw	255
  5421     0EF2  00AA               	movwf	??___fladd+2
  5422     0EF3  30FF               	movlw	255
  5423     0EF4  00AB               	movwf	??___fladd+3
  5424     0EF5  0824               	movf	___fladd@a,w
  5425     0EF6  00AC               	movwf	??___fladd+4
  5426     0EF7  0825               	movf	___fladd@a+1,w
  5427     0EF8  00AD               	movwf	??___fladd+5
  5428     0EF9  0826               	movf	___fladd@a+2,w
  5429     0EFA  00AE               	movwf	??___fladd+6
  5430     0EFB  0827               	movf	___fladd@a+3,w
  5431     0EFC  00AF               	movwf	??___fladd+7
  5432     0EFD  0820               	movf	___fladd@b,w
  5433     0EFE  02AC               	subwf	??___fladd+4,f
  5434     0EFF  0821               	movf	___fladd@b+1,w
  5435     0F00  1C03               	skipc
  5436     0F01  0F21               	incfsz	___fladd@b+1,w
  5437     0F02  2F04               	goto	u3691
  5438     0F03  2F05               	goto	u3692
  5439     0F04                     u3691:
  5440     0F04  02AD               	subwf	??___fladd+5,f
  5441     0F05                     u3692:
  5442     0F05  0822               	movf	___fladd@b+2,w
  5443     0F06  1C03               	skipc
  5444     0F07  0F22               	incfsz	___fladd@b+2,w
  5445     0F08  2F0A               	goto	u3693
  5446     0F09  2F0B               	goto	u3694
  5447     0F0A                     u3693:
  5448     0F0A  02AE               	subwf	??___fladd+6,f
  5449     0F0B                     u3694:
  5450     0F0B  0823               	movf	___fladd@b+3,w
  5451     0F0C  1C03               	skipc
  5452     0F0D  0F23               	incfsz	___fladd@b+3,w
  5453     0F0E  2F10               	goto	u3695
  5454     0F0F  2F11               	goto	u3696
  5455     0F10                     u3695:
  5456     0F10  02AF               	subwf	??___fladd+7,f
  5457     0F11                     u3696:
  5458     0F11  082C               	movf	??___fladd+4,w
  5459     0F12  07A8               	addwf	??___fladd,f
  5460     0F13  082D               	movf	??___fladd+5,w
  5461     0F14  1803               	skipnc
  5462     0F15  0F2D               	incfsz	??___fladd+5,w
  5463     0F16  2F18               	goto	u3700
  5464     0F17  2F19               	goto	u3701
  5465     0F18                     u3700:
  5466     0F18  07A9               	addwf	??___fladd+1,f
  5467     0F19                     u3701:
  5468     0F19  082E               	movf	??___fladd+6,w
  5469     0F1A  1803               	skipnc
  5470     0F1B  0F2E               	incfsz	??___fladd+6,w
  5471     0F1C  2F1E               	goto	u3702
  5472     0F1D  2F1F               	goto	u3703
  5473     0F1E                     u3702:
  5474     0F1E  07AA               	addwf	??___fladd+2,f
  5475     0F1F                     u3703:
  5476     0F1F  082F               	movf	??___fladd+7,w
  5477     0F20  1803               	skipnc
  5478     0F21  0A2F               	incf	??___fladd+7,w
  5479     0F22  07AB               	addwf	??___fladd+3,f
  5480     0F23  082B               	movf	??___fladd+3,w
  5481     0F24  00A3               	movwf	___fladd@b+3
  5482     0F25  082A               	movf	??___fladd+2,w
  5483     0F26  00A2               	movwf	___fladd@b+2
  5484     0F27  0829               	movf	??___fladd+1,w
  5485     0F28  00A1               	movwf	___fladd@b+1
  5486     0F29  0828               	movf	??___fladd,w
  5487     0F2A  00A0               	movwf	___fladd@b
  5488     0F2B                     l2928:
  5489     0F2B  3080               	movlw	128
  5490     0F2C  06F2               	xorwf	___fladd@signs,f
  5491     0F2D                     l2930:
  5492     0F2D  0375               	decf	___fladd@grs,w
  5493     0F2E  3AFF               	xorlw	255
  5494     0F2F  00F5               	movwf	___fladd@grs
  5495     0F30                     l2932:
  5496     0F30  0875               	movf	___fladd@grs,w
  5497     0F31  1D03               	btfss	3,2
  5498     0F32  2F34               	goto	u3711
  5499     0F33  2F35               	goto	u3710
  5500     0F34                     u3711:
  5501     0F34  2F52               	goto	l734
  5502     0F35                     u3710:
  5503     0F35                     l2934:
  5504     0F35  3001               	movlw	1
  5505     0F36  07A0               	addwf	___fladd@b,f
  5506     0F37  3000               	movlw	0
  5507     0F38  1803               	skipnc
  5508     0F39  3001               	movlw	1
  5509     0F3A  07A1               	addwf	___fladd@b+1,f
  5510     0F3B  3000               	movlw	0
  5511     0F3C  1803               	skipnc
  5512     0F3D  3001               	movlw	1
  5513     0F3E  07A2               	addwf	___fladd@b+2,f
  5514     0F3F  3000               	movlw	0
  5515     0F40  1803               	skipnc
  5516     0F41  3001               	movlw	1
  5517     0F42  07A3               	addwf	___fladd@b+3,f
  5518     0F43  2F52               	goto	l734
  5519     0F44                     l2936:
  5520     0F44  0824               	movf	___fladd@a,w
  5521     0F45  02A0               	subwf	___fladd@b,f
  5522     0F46  0825               	movf	___fladd@a+1,w
  5523     0F47  1C03               	skipc
  5524     0F48  0F25               	incfsz	___fladd@a+1,w
  5525     0F49  02A1               	subwf	___fladd@b+1,f
  5526     0F4A  0826               	movf	___fladd@a+2,w
  5527     0F4B  1C03               	skipc
  5528     0F4C  0F26               	incfsz	___fladd@a+2,w
  5529     0F4D  02A2               	subwf	___fladd@b+2,f
  5530     0F4E  0827               	movf	___fladd@a+3,w
  5531     0F4F  1C03               	skipc
  5532     0F50  0F27               	incfsz	___fladd@a+3,w
  5533     0F51  02A3               	subwf	___fladd@b+3,f
  5534     0F52                     l734:
  5535     0F52  0823               	movf	___fladd@b+3,w
  5536     0F53  0422               	iorwf	___fladd@b+2,w
  5537     0F54  0421               	iorwf	___fladd@b+1,w
  5538     0F55  0420               	iorwf	___fladd@b,w
  5539     0F56  1D03               	skipz
  5540     0F57  2F59               	goto	u3721
  5541     0F58  2F5A               	goto	u3720
  5542     0F59                     u3721:
  5543     0F59  2F87               	goto	l2958
  5544     0F5A                     u3720:
  5545     0F5A                     l2938:
  5546     0F5A  0875               	movf	___fladd@grs,w
  5547     0F5B  1D03               	btfss	3,2
  5548     0F5C  2F5E               	goto	u3731
  5549     0F5D  2F5F               	goto	u3730
  5550     0F5E                     u3731:
  5551     0F5E  2F87               	goto	l2958
  5552     0F5F                     u3730:
  5553     0F5F                     l2940:
  5554     0F5F  3000               	movlw	0
  5555     0F60  00A3               	movwf	?___fladd+3
  5556     0F61  3000               	movlw	0
  5557     0F62  00A2               	movwf	?___fladd+2
  5558     0F63  3000               	movlw	0
  5559     0F64  00A1               	movwf	?___fladd+1
  5560     0F65  3000               	movlw	0
  5561     0F66  00A0               	movwf	?___fladd
  5562     0F67  2FFF               	goto	l726
  5563     0F68                     l2944:
  5564     0F68  3001               	movlw	1
  5565     0F69  00A8               	movwf	??___fladd
  5566     0F6A                     u3745:
  5567     0F6A  1003               	clrc
  5568     0F6B  0DA0               	rlf	___fladd@b,f
  5569     0F6C  0DA1               	rlf	___fladd@b+1,f
  5570     0F6D  0DA2               	rlf	___fladd@b+2,f
  5571     0F6E  0DA3               	rlf	___fladd@b+3,f
  5572     0F6F  0BA8               	decfsz	??___fladd,f
  5573     0F70  2F6A               	goto	u3745
  5574     0F71                     l2946:
  5575     0F71  1FF5               	btfss	___fladd@grs,7
  5576     0F72  2F74               	goto	u3751
  5577     0F73  2F75               	goto	u3750
  5578     0F74                     u3751:
  5579     0F74  2F76               	goto	l738
  5580     0F75                     u3750:
  5581     0F75                     l2948:
  5582     0F75  1420               	bsf	___fladd@b,0
  5583     0F76                     l738:
  5584     0F76  1C75               	btfss	___fladd@grs,0
  5585     0F77  2F79               	goto	u3761
  5586     0F78  2F7A               	goto	u3760
  5587     0F79                     u3761:
  5588     0F79  2F7E               	goto	l2952
  5589     0F7A                     u3760:
  5590     0F7A                     l2950:
  5591     0F7A  1403               	setc
  5592     0F7B  0D75               	rlf	___fladd@grs,w
  5593     0F7C  00F5               	movwf	___fladd@grs
  5594     0F7D  2F80               	goto	l2954
  5595     0F7E                     l2952:
  5596     0F7E  1003               	clrc
  5597     0F7F  0DF5               	rlf	___fladd@grs,f
  5598     0F80                     l2954:
  5599     0F80  0874               	movf	___fladd@bexp,w
  5600     0F81  1903               	btfsc	3,2
  5601     0F82  2F84               	goto	u3771
  5602     0F83  2F85               	goto	u3770
  5603     0F84                     u3771:
  5604     0F84  2F87               	goto	l2958
  5605     0F85                     u3770:
  5606     0F85                     l2956:
  5607     0F85  3001               	movlw	1
  5608     0F86  02F4               	subwf	___fladd@bexp,f
  5609     0F87                     l2958:
  5610     0F87  1FA2               	btfss	___fladd@b+2,7
  5611     0F88  2F8A               	goto	u3781
  5612     0F89  2F8B               	goto	u3780
  5613     0F8A                     u3781:
  5614     0F8A  2F68               	goto	l2944
  5615     0F8B                     u3780:
  5616     0F8B                     l2960:
  5617     0F8B  01F3               	clrf	___fladd@aexp
  5618     0F8C                     l2962:
  5619     0F8C  1FF5               	btfss	___fladd@grs,7
  5620     0F8D  2F8F               	goto	u3791
  5621     0F8E  2F90               	goto	u3790
  5622     0F8F                     u3791:
  5623     0F8F  2F9E               	goto	l2970
  5624     0F90                     u3790:
  5625     0F90                     l2964:
  5626     0F90  0875               	movf	___fladd@grs,w
  5627     0F91  397F               	andlw	127
  5628     0F92  1903               	btfsc	3,2
  5629     0F93  2F95               	goto	u3801
  5630     0F94  2F96               	goto	u3800
  5631     0F95                     u3801:
  5632     0F95  2F99               	goto	l744
  5633     0F96                     u3800:
  5634     0F96                     l2966:
  5635     0F96  3001               	movlw	1
  5636     0F97  00F3               	movwf	___fladd@aexp
  5637     0F98  2F9E               	goto	l2970
  5638     0F99                     l744:
  5639     0F99  1C20               	btfss	___fladd@b,0
  5640     0F9A  2F9C               	goto	u3811
  5641     0F9B  2F9D               	goto	u3810
  5642     0F9C                     u3811:
  5643     0F9C  2F9E               	goto	l2970
  5644     0F9D                     u3810:
  5645     0F9D  2F96               	goto	l2966
  5646     0F9E                     l2970:
  5647     0F9E  0873               	movf	___fladd@aexp,w
  5648     0F9F  1903               	btfsc	3,2
  5649     0FA0  2FA2               	goto	u3821
  5650     0FA1  2FA3               	goto	u3820
  5651     0FA2                     u3821:
  5652     0FA2  2FD5               	goto	l747
  5653     0FA3                     u3820:
  5654     0FA3                     l2972:
  5655     0FA3  3001               	movlw	1
  5656     0FA4  07A0               	addwf	___fladd@b,f
  5657     0FA5  3000               	movlw	0
  5658     0FA6  1803               	skipnc
  5659     0FA7  3001               	movlw	1
  5660     0FA8  07A1               	addwf	___fladd@b+1,f
  5661     0FA9  3000               	movlw	0
  5662     0FAA  1803               	skipnc
  5663     0FAB  3001               	movlw	1
  5664     0FAC  07A2               	addwf	___fladd@b+2,f
  5665     0FAD  3000               	movlw	0
  5666     0FAE  1803               	skipnc
  5667     0FAF  3001               	movlw	1
  5668     0FB0  07A3               	addwf	___fladd@b+3,f
  5669     0FB1                     l2974:
  5670     0FB1  1C23               	btfss	___fladd@b+3,0
  5671     0FB2  2FB4               	goto	u3831
  5672     0FB3  2FB5               	goto	u3830
  5673     0FB4                     u3831:
  5674     0FB4  2FD5               	goto	l747
  5675     0FB5                     u3830:
  5676     0FB5                     l2976:
  5677     0FB5  0820               	movf	___fladd@b,w
  5678     0FB6  00A8               	movwf	??___fladd
  5679     0FB7  0821               	movf	___fladd@b+1,w
  5680     0FB8  00A9               	movwf	??___fladd+1
  5681     0FB9  0822               	movf	___fladd@b+2,w
  5682     0FBA  00AA               	movwf	??___fladd+2
  5683     0FBB  0823               	movf	___fladd@b+3,w
  5684     0FBC  00AB               	movwf	??___fladd+3
  5685     0FBD  3001               	movlw	1
  5686     0FBE  00AC               	movwf	??___fladd+4
  5687     0FBF                     u3845:
  5688     0FBF  0D2B               	rlf	??___fladd+3,w
  5689     0FC0  0CAB               	rrf	??___fladd+3,f
  5690     0FC1  0CAA               	rrf	??___fladd+2,f
  5691     0FC2  0CA9               	rrf	??___fladd+1,f
  5692     0FC3  0CA8               	rrf	??___fladd,f
  5693     0FC4                     u3840:
  5694     0FC4  0BAC               	decfsz	??___fladd+4,f
  5695     0FC5  2FBF               	goto	u3845
  5696     0FC6  082B               	movf	??___fladd+3,w
  5697     0FC7  00A3               	movwf	___fladd@b+3
  5698     0FC8  082A               	movf	??___fladd+2,w
  5699     0FC9  00A2               	movwf	___fladd@b+2
  5700     0FCA  0829               	movf	??___fladd+1,w
  5701     0FCB  00A1               	movwf	___fladd@b+1
  5702     0FCC  0828               	movf	??___fladd,w
  5703     0FCD  00A0               	movwf	___fladd@b
  5704     0FCE  0A74               	incf	___fladd@bexp,w
  5705     0FCF  1903               	btfsc	3,2
  5706     0FD0  2FD2               	goto	u3851
  5707     0FD1  2FD3               	goto	u3850
  5708     0FD2                     u3851:
  5709     0FD2  2FD5               	goto	l747
  5710     0FD3                     u3850:
  5711     0FD3                     l2978:
  5712     0FD3  3001               	movlw	1
  5713     0FD4  07F4               	addwf	___fladd@bexp,f
  5714     0FD5                     l747:
  5715     0FD5  0A74               	incf	___fladd@bexp,w
  5716     0FD6  1903               	btfsc	3,2
  5717     0FD7  2FD9               	goto	u3861
  5718     0FD8  2FDA               	goto	u3860
  5719     0FD9                     u3861:
  5720     0FD9  2FDF               	goto	l2982
  5721     0FDA                     u3860:
  5722     0FDA                     l2980:
  5723     0FDA  0874               	movf	___fladd@bexp,w
  5724     0FDB  1D03               	btfss	3,2
  5725     0FDC  2FDE               	goto	u3871
  5726     0FDD  2FDF               	goto	u3870
  5727     0FDE                     u3871:
  5728     0FDE  2FED               	goto	l2988
  5729     0FDF                     u3870:
  5730     0FDF                     l2982:
  5731     0FDF  3000               	movlw	0
  5732     0FE0  00A3               	movwf	___fladd@b+3
  5733     0FE1  3000               	movlw	0
  5734     0FE2  00A2               	movwf	___fladd@b+2
  5735     0FE3  3000               	movlw	0
  5736     0FE4  00A1               	movwf	___fladd@b+1
  5737     0FE5  3000               	movlw	0
  5738     0FE6  00A0               	movwf	___fladd@b
  5739     0FE7                     l2984:
  5740     0FE7  0874               	movf	___fladd@bexp,w
  5741     0FE8  1D03               	btfss	3,2
  5742     0FE9  2FEB               	goto	u3881
  5743     0FEA  2FEC               	goto	u3880
  5744     0FEB                     u3881:
  5745     0FEB  2FED               	goto	l2988
  5746     0FEC                     u3880:
  5747     0FEC                     l2986:
  5748     0FEC  01F2               	clrf	___fladd@signs
  5749     0FED                     l2988:
  5750     0FED  1C74               	btfss	___fladd@bexp,0
  5751     0FEE  2FF0               	goto	u3891
  5752     0FEF  2FF1               	goto	u3890
  5753     0FF0                     u3891:
  5754     0FF0  2FF3               	goto	l2992
  5755     0FF1                     u3890:
  5756     0FF1                     l2990:
  5757     0FF1  17A2               	bsf	___fladd@b+2,7
  5758     0FF2  2FF5               	goto	l755
  5759     0FF3                     l2992:
  5760     0FF3  307F               	movlw	127
  5761     0FF4  05A2               	andwf	___fladd@b+2,f
  5762     0FF5                     l755:
  5763     0FF5  0874               	movf	___fladd@bexp,w
  5764     0FF6  00A8               	movwf	??___fladd
  5765     0FF7  1003               	clrc
  5766     0FF8  0C28               	rrf	??___fladd,w
  5767     0FF9  00A3               	movwf	___fladd@b+3
  5768     0FFA                     l2994:
  5769     0FFA  1FF2               	btfss	___fladd@signs,7
  5770     0FFB  2FFD               	goto	u3901
  5771     0FFC  2FFE               	goto	u3900
  5772     0FFD                     u3901:
  5773     0FFD  2FFF               	goto	l756
  5774     0FFE                     u3900:
  5775     0FFE                     l2996:
  5776     0FFE  17A3               	bsf	___fladd@b+3,7
  5777     0FFF                     l756:
  5778     0FFF                     l726:
  5779     0FFF  0008               	return
  5780     1000                     __end_of___fladd:
  5781                           
  5782                           	psect	text12
  5783     03E6                     __ptext12:	
  5784 ;; *************** function ___flmul *****************
  5785 ;; Defined at:
  5786 ;;		line 8 in file "C:\Program Files\Microchip\xc8\v3.00\pic\sources\c99\common\sprcmul.c"
  5787 ;; Parameters:    Size  Location     Type
  5788 ;;  b               4   10[BANK0 ] unsigned char 
  5789 ;;  a               4   14[BANK0 ] unsigned char 
  5790 ;; Auto vars:     Size  Location     Type
  5791 ;;  prod            4   30[BANK0 ] struct .
  5792 ;;  grs             4   25[BANK0 ] unsigned long 
  5793 ;;  temp            2   34[BANK0 ] struct .
  5794 ;;  bexp            1   29[BANK0 ] unsigned char 
  5795 ;;  aexp            1   24[BANK0 ] unsigned char 
  5796 ;;  sign            1   23[BANK0 ] unsigned char 
  5797 ;; Return value:  Size  Location     Type
  5798 ;;                  4   10[BANK0 ] unsigned char 
  5799 ;; Registers used:
  5800 ;;		wreg, status,2, status,0, btemp+1, pclath, cstack
  5801 ;; Tracked objects:
  5802 ;;		On entry : 0/0
  5803 ;;		On exit  : 0/0
  5804 ;;		Unchanged: 0/0
  5805 ;; Data sizes:     COMMON   BANK0   BANK1   BANK3   BANK2
  5806 ;;      Params:         0       8       0       0       0
  5807 ;;      Locals:         0      13       0       0       0
  5808 ;;      Temps:          0       5       0       0       0
  5809 ;;      Totals:         0      26       0       0       0
  5810 ;;Total ram usage:       26 bytes
  5811 ;; Hardware stack levels used: 1
  5812 ;; Hardware stack levels required when called: 2
  5813 ;; This function calls:
  5814 ;;		__Umul8_16
  5815 ;; This function is called by:
  5816 ;;		_run_program
  5817 ;; This function uses a non-reentrant model
  5818 ;;
  5819                           
  5820     03E6                     ___flmul:	
  5821                           ;psect for function ___flmul
  5822                           
  5823     03E6                     l3208:	
  5824                           ;incstack = 0
  5825                           ; Regs used in ___flmul: [wreg+status,2+status,0+btemp+1+pclath+cstack]
  5826                           
  5827     03E6  1283               	bcf	3,5	;RP0=0, select bank0
  5828     03E7  1303               	bcf	3,6	;RP1=0, select bank0
  5829     03E8  082D               	movf	___flmul@b+3,w
  5830     03E9  00B7               	movwf	___flmul@sign
  5831     03EA                     l3210:
  5832     03EA  3080               	movlw	128
  5833     03EB  05B7               	andwf	___flmul@sign,f
  5834     03EC                     l3212:
  5835     03EC  082D               	movf	___flmul@b+3,w
  5836     03ED  00B2               	movwf	??___flmul
  5837     03EE  0732               	addwf	??___flmul,w
  5838     03EF  00BD               	movwf	___flmul@bexp
  5839     03F0                     l3214:
  5840     03F0  1FAC               	btfss	___flmul@b+2,7
  5841     03F1  2BF3               	goto	u4361
  5842     03F2  2BF4               	goto	u4360
  5843     03F3                     u4361:
  5844     03F3  2BF5               	goto	l3218
  5845     03F4                     u4360:
  5846     03F4                     l3216:
  5847     03F4  143D               	bsf	___flmul@bexp,0
  5848     03F5                     l3218:
  5849     03F5  083D               	movf	___flmul@bexp,w
  5850     03F6  1903               	btfsc	3,2
  5851     03F7  2BF9               	goto	u4371
  5852     03F8  2BFA               	goto	u4370
  5853     03F9                     u4371:
  5854     03F9  2C09               	goto	l3226
  5855     03FA                     u4370:
  5856     03FA                     l3220:
  5857     03FA  0A3D               	incf	___flmul@bexp,w
  5858     03FB  1D03               	btfss	3,2
  5859     03FC  2BFE               	goto	u4381
  5860     03FD  2BFF               	goto	u4380
  5861     03FE                     u4381:
  5862     03FE  2C07               	goto	l3224
  5863     03FF                     u4380:
  5864     03FF                     l3222:
  5865     03FF  3000               	movlw	0
  5866     0400  00AD               	movwf	___flmul@b+3
  5867     0401  3000               	movlw	0
  5868     0402  00AC               	movwf	___flmul@b+2
  5869     0403  3000               	movlw	0
  5870     0404  00AB               	movwf	___flmul@b+1
  5871     0405  3000               	movlw	0
  5872     0406  00AA               	movwf	___flmul@b
  5873     0407                     l3224:
  5874     0407  17AC               	bsf	___flmul@b+2,7
  5875     0408  2C11               	goto	l3228
  5876     0409                     l3226:
  5877     0409  3000               	movlw	0
  5878     040A  00AD               	movwf	___flmul@b+3
  5879     040B  3000               	movlw	0
  5880     040C  00AC               	movwf	___flmul@b+2
  5881     040D  3000               	movlw	0
  5882     040E  00AB               	movwf	___flmul@b+1
  5883     040F  3000               	movlw	0
  5884     0410  00AA               	movwf	___flmul@b
  5885     0411                     l3228:
  5886     0411  0831               	movf	___flmul@a+3,w
  5887     0412  3980               	andlw	128
  5888     0413  06B7               	xorwf	___flmul@sign,f
  5889     0414                     l3230:
  5890     0414  0831               	movf	___flmul@a+3,w
  5891     0415  00B2               	movwf	??___flmul
  5892     0416  0732               	addwf	??___flmul,w
  5893     0417  00B8               	movwf	___flmul@aexp
  5894     0418                     l3232:
  5895     0418  1FB0               	btfss	___flmul@a+2,7
  5896     0419  2C1B               	goto	u4391
  5897     041A  2C1C               	goto	u4390
  5898     041B                     u4391:
  5899     041B  2C1D               	goto	l3236
  5900     041C                     u4390:
  5901     041C                     l3234:
  5902     041C  1438               	bsf	___flmul@aexp,0
  5903     041D                     l3236:
  5904     041D  0838               	movf	___flmul@aexp,w
  5905     041E  1903               	btfsc	3,2
  5906     041F  2C21               	goto	u4401
  5907     0420  2C22               	goto	u4400
  5908     0421                     u4401:
  5909     0421  2C31               	goto	l3244
  5910     0422                     u4400:
  5911     0422                     l3238:
  5912     0422  0A38               	incf	___flmul@aexp,w
  5913     0423  1D03               	btfss	3,2
  5914     0424  2C26               	goto	u4411
  5915     0425  2C27               	goto	u4410
  5916     0426                     u4411:
  5917     0426  2C2F               	goto	l3242
  5918     0427                     u4410:
  5919     0427                     l3240:
  5920     0427  3000               	movlw	0
  5921     0428  00B1               	movwf	___flmul@a+3
  5922     0429  3000               	movlw	0
  5923     042A  00B0               	movwf	___flmul@a+2
  5924     042B  3000               	movlw	0
  5925     042C  00AF               	movwf	___flmul@a+1
  5926     042D  3000               	movlw	0
  5927     042E  00AE               	movwf	___flmul@a
  5928     042F                     l3242:
  5929     042F  17B0               	bsf	___flmul@a+2,7
  5930     0430  2C39               	goto	l3246
  5931     0431                     l3244:
  5932     0431  3000               	movlw	0
  5933     0432  00B1               	movwf	___flmul@a+3
  5934     0433  3000               	movlw	0
  5935     0434  00B0               	movwf	___flmul@a+2
  5936     0435  3000               	movlw	0
  5937     0436  00AF               	movwf	___flmul@a+1
  5938     0437  3000               	movlw	0
  5939     0438  00AE               	movwf	___flmul@a
  5940     0439                     l3246:
  5941     0439  0838               	movf	___flmul@aexp,w
  5942     043A  1903               	btfsc	3,2
  5943     043B  2C3D               	goto	u4421
  5944     043C  2C3E               	goto	u4420
  5945     043D                     u4421:
  5946     043D  2C43               	goto	l3250
  5947     043E                     u4420:
  5948     043E                     l3248:
  5949     043E  083D               	movf	___flmul@bexp,w
  5950     043F  1D03               	btfss	3,2
  5951     0440  2C42               	goto	u4431
  5952     0441  2C43               	goto	u4430
  5953     0442                     u4431:
  5954     0442  2C4C               	goto	l3254
  5955     0443                     u4430:
  5956     0443                     l3250:
  5957     0443  3000               	movlw	0
  5958     0444  00AD               	movwf	?___flmul+3
  5959     0445  3000               	movlw	0
  5960     0446  00AC               	movwf	?___flmul+2
  5961     0447  3000               	movlw	0
  5962     0448  00AB               	movwf	?___flmul+1
  5963     0449  3000               	movlw	0
  5964     044A  00AA               	movwf	?___flmul
  5965     044B  2F27               	goto	l809
  5966     044C                     l3254:
  5967     044C  082A               	movf	___flmul@b,w
  5968     044D  00F2               	movwf	__Umul8_16@multiplicand
  5969     044E  0830               	movf	___flmul@a+2,w
  5970     044F  160A  118A  25A2  120A  118A  	fcall	__Umul8_16
  5971     0454  0873               	movf	?__Umul8_16+1,w
  5972     0455  1283               	bcf	3,5	;RP0=0, select bank0
  5973     0456  1303               	bcf	3,6	;RP1=0, select bank0
  5974     0457  00C3               	movwf	___flmul@temp+1
  5975     0458  0872               	movf	?__Umul8_16,w
  5976     0459  00C2               	movwf	___flmul@temp
  5977     045A                     l3256:
  5978     045A  0842               	movf	___flmul@temp,w
  5979     045B  00B2               	movwf	??___flmul
  5980     045C  01B3               	clrf	??___flmul+1
  5981     045D  01B4               	clrf	??___flmul+2
  5982     045E  01B5               	clrf	??___flmul+3
  5983     045F  0835               	movf	??___flmul+3,w
  5984     0460  00BC               	movwf	___flmul@grs+3
  5985     0461  0834               	movf	??___flmul+2,w
  5986     0462  00BB               	movwf	___flmul@grs+2
  5987     0463  0833               	movf	??___flmul+1,w
  5988     0464  00BA               	movwf	___flmul@grs+1
  5989     0465  0832               	movf	??___flmul,w
  5990     0466  00B9               	movwf	___flmul@grs
  5991     0467                     l3258:
  5992     0467  0843               	movf	___flmul@temp+1,w
  5993     0468  00B2               	movwf	??___flmul
  5994     0469  01B3               	clrf	??___flmul+1
  5995     046A  01B4               	clrf	??___flmul+2
  5996     046B  01B5               	clrf	??___flmul+3
  5997     046C  0835               	movf	??___flmul+3,w
  5998     046D  00C1               	movwf	___flmul@prod+3
  5999     046E  0834               	movf	??___flmul+2,w
  6000     046F  00C0               	movwf	___flmul@prod+2
  6001     0470  0833               	movf	??___flmul+1,w
  6002     0471  00BF               	movwf	___flmul@prod+1
  6003     0472  0832               	movf	??___flmul,w
  6004     0473  00BE               	movwf	___flmul@prod
  6005     0474  082B               	movf	___flmul@b+1,w
  6006     0475  00F2               	movwf	__Umul8_16@multiplicand
  6007     0476  082F               	movf	___flmul@a+1,w
  6008     0477  160A  118A  25A2  120A  118A  	fcall	__Umul8_16
  6009     047C  0873               	movf	?__Umul8_16+1,w
  6010     047D  1283               	bcf	3,5	;RP0=0, select bank0
  6011     047E  1303               	bcf	3,6	;RP1=0, select bank0
  6012     047F  00C3               	movwf	___flmul@temp+1
  6013     0480  0872               	movf	?__Umul8_16,w
  6014     0481  00C2               	movwf	___flmul@temp
  6015     0482                     l3260:
  6016     0482  0842               	movf	___flmul@temp,w
  6017     0483  00B2               	movwf	??___flmul
  6018     0484  01B3               	clrf	??___flmul+1
  6019     0485  01B4               	clrf	??___flmul+2
  6020     0486  01B5               	clrf	??___flmul+3
  6021     0487  0832               	movf	??___flmul,w
  6022     0488  07B9               	addwf	___flmul@grs,f
  6023     0489  0833               	movf	??___flmul+1,w
  6024     048A  1103               	clrz
  6025     048B  1803               	skipnc
  6026     048C  3E01               	addlw	1
  6027     048D  1903               	skipnz
  6028     048E  2C90               	goto	u4441
  6029     048F  07BA               	addwf	___flmul@grs+1,f
  6030     0490                     u4441:
  6031     0490  0834               	movf	??___flmul+2,w
  6032     0491  1103               	clrz
  6033     0492  1803               	skipnc
  6034     0493  3E01               	addlw	1
  6035     0494  1903               	skipnz
  6036     0495  2C97               	goto	u4442
  6037     0496  07BB               	addwf	___flmul@grs+2,f
  6038     0497                     u4442:
  6039     0497  0835               	movf	??___flmul+3,w
  6040     0498  1103               	clrz
  6041     0499  1803               	skipnc
  6042     049A  3E01               	addlw	1
  6043     049B  1903               	skipnz
  6044     049C  2C9E               	goto	u4443
  6045     049D  07BC               	addwf	___flmul@grs+3,f
  6046     049E                     u4443:
  6047     049E                     l3262:
  6048     049E  0843               	movf	___flmul@temp+1,w
  6049     049F  00B2               	movwf	??___flmul
  6050     04A0  01B3               	clrf	??___flmul+1
  6051     04A1  01B4               	clrf	??___flmul+2
  6052     04A2  01B5               	clrf	??___flmul+3
  6053     04A3  0832               	movf	??___flmul,w
  6054     04A4  07BE               	addwf	___flmul@prod,f
  6055     04A5  0833               	movf	??___flmul+1,w
  6056     04A6  1103               	clrz
  6057     04A7  1803               	skipnc
  6058     04A8  3E01               	addlw	1
  6059     04A9  1903               	skipnz
  6060     04AA  2CAC               	goto	u4451
  6061     04AB  07BF               	addwf	___flmul@prod+1,f
  6062     04AC                     u4451:
  6063     04AC  0834               	movf	??___flmul+2,w
  6064     04AD  1103               	clrz
  6065     04AE  1803               	skipnc
  6066     04AF  3E01               	addlw	1
  6067     04B0  1903               	skipnz
  6068     04B1  2CB3               	goto	u4452
  6069     04B2  07C0               	addwf	___flmul@prod+2,f
  6070     04B3                     u4452:
  6071     04B3  0835               	movf	??___flmul+3,w
  6072     04B4  1103               	clrz
  6073     04B5  1803               	skipnc
  6074     04B6  3E01               	addlw	1
  6075     04B7  1903               	skipnz
  6076     04B8  2CBA               	goto	u4453
  6077     04B9  07C1               	addwf	___flmul@prod+3,f
  6078     04BA                     u4453:
  6079     04BA  082C               	movf	___flmul@b+2,w
  6080     04BB  00F2               	movwf	__Umul8_16@multiplicand
  6081     04BC  082E               	movf	___flmul@a,w
  6082     04BD  160A  118A  25A2  120A  118A  	fcall	__Umul8_16
  6083     04C2  0873               	movf	?__Umul8_16+1,w
  6084     04C3  1283               	bcf	3,5	;RP0=0, select bank0
  6085     04C4  1303               	bcf	3,6	;RP1=0, select bank0
  6086     04C5  00C3               	movwf	___flmul@temp+1
  6087     04C6  0872               	movf	?__Umul8_16,w
  6088     04C7  00C2               	movwf	___flmul@temp
  6089     04C8                     l3264:
  6090     04C8  0842               	movf	___flmul@temp,w
  6091     04C9  00B2               	movwf	??___flmul
  6092     04CA  01B3               	clrf	??___flmul+1
  6093     04CB  01B4               	clrf	??___flmul+2
  6094     04CC  01B5               	clrf	??___flmul+3
  6095     04CD  0832               	movf	??___flmul,w
  6096     04CE  07B9               	addwf	___flmul@grs,f
  6097     04CF  0833               	movf	??___flmul+1,w
  6098     04D0  1103               	clrz
  6099     04D1  1803               	skipnc
  6100     04D2  3E01               	addlw	1
  6101     04D3  1903               	skipnz
  6102     04D4  2CD6               	goto	u4461
  6103     04D5  07BA               	addwf	___flmul@grs+1,f
  6104     04D6                     u4461:
  6105     04D6  0834               	movf	??___flmul+2,w
  6106     04D7  1103               	clrz
  6107     04D8  1803               	skipnc
  6108     04D9  3E01               	addlw	1
  6109     04DA  1903               	skipnz
  6110     04DB  2CDD               	goto	u4462
  6111     04DC  07BB               	addwf	___flmul@grs+2,f
  6112     04DD                     u4462:
  6113     04DD  0835               	movf	??___flmul+3,w
  6114     04DE  1103               	clrz
  6115     04DF  1803               	skipnc
  6116     04E0  3E01               	addlw	1
  6117     04E1  1903               	skipnz
  6118     04E2  2CE4               	goto	u4463
  6119     04E3  07BC               	addwf	___flmul@grs+3,f
  6120     04E4                     u4463:
  6121     04E4                     l3266:
  6122     04E4  0843               	movf	___flmul@temp+1,w
  6123     04E5  00B2               	movwf	??___flmul
  6124     04E6  01B3               	clrf	??___flmul+1
  6125     04E7  01B4               	clrf	??___flmul+2
  6126     04E8  01B5               	clrf	??___flmul+3
  6127     04E9  0832               	movf	??___flmul,w
  6128     04EA  07BE               	addwf	___flmul@prod,f
  6129     04EB  0833               	movf	??___flmul+1,w
  6130     04EC  1103               	clrz
  6131     04ED  1803               	skipnc
  6132     04EE  3E01               	addlw	1
  6133     04EF  1903               	skipnz
  6134     04F0  2CF2               	goto	u4471
  6135     04F1  07BF               	addwf	___flmul@prod+1,f
  6136     04F2                     u4471:
  6137     04F2  0834               	movf	??___flmul+2,w
  6138     04F3  1103               	clrz
  6139     04F4  1803               	skipnc
  6140     04F5  3E01               	addlw	1
  6141     04F6  1903               	skipnz
  6142     04F7  2CF9               	goto	u4472
  6143     04F8  07C0               	addwf	___flmul@prod+2,f
  6144     04F9                     u4472:
  6145     04F9  0835               	movf	??___flmul+3,w
  6146     04FA  1103               	clrz
  6147     04FB  1803               	skipnc
  6148     04FC  3E01               	addlw	1
  6149     04FD  1903               	skipnz
  6150     04FE  2D00               	goto	u4473
  6151     04FF  07C1               	addwf	___flmul@prod+3,f
  6152     0500                     u4473:
  6153     0500                     l3268:
  6154     0500  3008               	movlw	8
  6155     0501  00B2               	movwf	??___flmul
  6156     0502                     u4485:
  6157     0502  1003               	clrc
  6158     0503  0DB9               	rlf	___flmul@grs,f
  6159     0504  0DBA               	rlf	___flmul@grs+1,f
  6160     0505  0DBB               	rlf	___flmul@grs+2,f
  6161     0506  0DBC               	rlf	___flmul@grs+3,f
  6162     0507  0BB2               	decfsz	??___flmul,f
  6163     0508  2D02               	goto	u4485
  6164     0509                     l3270:
  6165     0509  082B               	movf	___flmul@b+1,w
  6166     050A  00F2               	movwf	__Umul8_16@multiplicand
  6167     050B  082E               	movf	___flmul@a,w
  6168     050C  160A  118A  25A2  120A  118A  	fcall	__Umul8_16
  6169     0511  0873               	movf	?__Umul8_16+1,w
  6170     0512  1283               	bcf	3,5	;RP0=0, select bank0
  6171     0513  1303               	bcf	3,6	;RP1=0, select bank0
  6172     0514  00C3               	movwf	___flmul@temp+1
  6173     0515  0872               	movf	?__Umul8_16,w
  6174     0516  00C2               	movwf	___flmul@temp
  6175     0517                     l3272:
  6176     0517  0842               	movf	___flmul@temp,w
  6177     0518  00B2               	movwf	??___flmul
  6178     0519  0843               	movf	___flmul@temp+1,w
  6179     051A  00B3               	movwf	??___flmul+1
  6180     051B  01B4               	clrf	??___flmul+2
  6181     051C  01B5               	clrf	??___flmul+3
  6182     051D  0832               	movf	??___flmul,w
  6183     051E  07B9               	addwf	___flmul@grs,f
  6184     051F  0833               	movf	??___flmul+1,w
  6185     0520  1103               	clrz
  6186     0521  1803               	skipnc
  6187     0522  3E01               	addlw	1
  6188     0523  1903               	skipnz
  6189     0524  2D26               	goto	u4491
  6190     0525  07BA               	addwf	___flmul@grs+1,f
  6191     0526                     u4491:
  6192     0526  0834               	movf	??___flmul+2,w
  6193     0527  1103               	clrz
  6194     0528  1803               	skipnc
  6195     0529  3E01               	addlw	1
  6196     052A  1903               	skipnz
  6197     052B  2D2D               	goto	u4492
  6198     052C  07BB               	addwf	___flmul@grs+2,f
  6199     052D                     u4492:
  6200     052D  0835               	movf	??___flmul+3,w
  6201     052E  1103               	clrz
  6202     052F  1803               	skipnc
  6203     0530  3E01               	addlw	1
  6204     0531  1903               	skipnz
  6205     0532  2D34               	goto	u4493
  6206     0533  07BC               	addwf	___flmul@grs+3,f
  6207     0534                     u4493:
  6208     0534                     l3274:
  6209     0534  082A               	movf	___flmul@b,w
  6210     0535  00F2               	movwf	__Umul8_16@multiplicand
  6211     0536  082F               	movf	___flmul@a+1,w
  6212     0537  160A  118A  25A2  120A  118A  	fcall	__Umul8_16
  6213     053C  0873               	movf	?__Umul8_16+1,w
  6214     053D  1283               	bcf	3,5	;RP0=0, select bank0
  6215     053E  1303               	bcf	3,6	;RP1=0, select bank0
  6216     053F  00C3               	movwf	___flmul@temp+1
  6217     0540  0872               	movf	?__Umul8_16,w
  6218     0541  00C2               	movwf	___flmul@temp
  6219     0542                     l3276:
  6220     0542  0842               	movf	___flmul@temp,w
  6221     0543  00B2               	movwf	??___flmul
  6222     0544  0843               	movf	___flmul@temp+1,w
  6223     0545  00B3               	movwf	??___flmul+1
  6224     0546  01B4               	clrf	??___flmul+2
  6225     0547  01B5               	clrf	??___flmul+3
  6226     0548  0832               	movf	??___flmul,w
  6227     0549  07B9               	addwf	___flmul@grs,f
  6228     054A  0833               	movf	??___flmul+1,w
  6229     054B  1103               	clrz
  6230     054C  1803               	skipnc
  6231     054D  3E01               	addlw	1
  6232     054E  1903               	skipnz
  6233     054F  2D51               	goto	u4501
  6234     0550  07BA               	addwf	___flmul@grs+1,f
  6235     0551                     u4501:
  6236     0551  0834               	movf	??___flmul+2,w
  6237     0552  1103               	clrz
  6238     0553  1803               	skipnc
  6239     0554  3E01               	addlw	1
  6240     0555  1903               	skipnz
  6241     0556  2D58               	goto	u4502
  6242     0557  07BB               	addwf	___flmul@grs+2,f
  6243     0558                     u4502:
  6244     0558  0835               	movf	??___flmul+3,w
  6245     0559  1103               	clrz
  6246     055A  1803               	skipnc
  6247     055B  3E01               	addlw	1
  6248     055C  1903               	skipnz
  6249     055D  2D5F               	goto	u4503
  6250     055E  07BC               	addwf	___flmul@grs+3,f
  6251     055F                     u4503:
  6252     055F                     l3278:
  6253     055F  3008               	movlw	8
  6254     0560  00B2               	movwf	??___flmul
  6255     0561                     u4515:
  6256     0561  1003               	clrc
  6257     0562  0DB9               	rlf	___flmul@grs,f
  6258     0563  0DBA               	rlf	___flmul@grs+1,f
  6259     0564  0DBB               	rlf	___flmul@grs+2,f
  6260     0565  0DBC               	rlf	___flmul@grs+3,f
  6261     0566  0BB2               	decfsz	??___flmul,f
  6262     0567  2D61               	goto	u4515
  6263     0568  082A               	movf	___flmul@b,w
  6264     0569  00F2               	movwf	__Umul8_16@multiplicand
  6265     056A  082E               	movf	___flmul@a,w
  6266     056B  160A  118A  25A2  120A  118A  	fcall	__Umul8_16
  6267     0570  0873               	movf	?__Umul8_16+1,w
  6268     0571  1283               	bcf	3,5	;RP0=0, select bank0
  6269     0572  1303               	bcf	3,6	;RP1=0, select bank0
  6270     0573  00C3               	movwf	___flmul@temp+1
  6271     0574  0872               	movf	?__Umul8_16,w
  6272     0575  00C2               	movwf	___flmul@temp
  6273     0576                     l3280:
  6274     0576  0842               	movf	___flmul@temp,w
  6275     0577  00B2               	movwf	??___flmul
  6276     0578  0843               	movf	___flmul@temp+1,w
  6277     0579  00B3               	movwf	??___flmul+1
  6278     057A  01B4               	clrf	??___flmul+2
  6279     057B  01B5               	clrf	??___flmul+3
  6280     057C  0832               	movf	??___flmul,w
  6281     057D  07B9               	addwf	___flmul@grs,f
  6282     057E  0833               	movf	??___flmul+1,w
  6283     057F  1103               	clrz
  6284     0580  1803               	skipnc
  6285     0581  3E01               	addlw	1
  6286     0582  1903               	skipnz
  6287     0583  2D85               	goto	u4521
  6288     0584  07BA               	addwf	___flmul@grs+1,f
  6289     0585                     u4521:
  6290     0585  0834               	movf	??___flmul+2,w
  6291     0586  1103               	clrz
  6292     0587  1803               	skipnc
  6293     0588  3E01               	addlw	1
  6294     0589  1903               	skipnz
  6295     058A  2D8C               	goto	u4522
  6296     058B  07BB               	addwf	___flmul@grs+2,f
  6297     058C                     u4522:
  6298     058C  0835               	movf	??___flmul+3,w
  6299     058D  1103               	clrz
  6300     058E  1803               	skipnc
  6301     058F  3E01               	addlw	1
  6302     0590  1903               	skipnz
  6303     0591  2D93               	goto	u4523
  6304     0592  07BC               	addwf	___flmul@grs+3,f
  6305     0593                     u4523:
  6306     0593                     l3282:
  6307     0593  082B               	movf	___flmul@b+1,w
  6308     0594  00F2               	movwf	__Umul8_16@multiplicand
  6309     0595  0830               	movf	___flmul@a+2,w
  6310     0596  160A  118A  25A2  120A  118A  	fcall	__Umul8_16
  6311     059B  0873               	movf	?__Umul8_16+1,w
  6312     059C  1283               	bcf	3,5	;RP0=0, select bank0
  6313     059D  1303               	bcf	3,6	;RP1=0, select bank0
  6314     059E  00C3               	movwf	___flmul@temp+1
  6315     059F  0872               	movf	?__Umul8_16,w
  6316     05A0  00C2               	movwf	___flmul@temp
  6317     05A1  0842               	movf	___flmul@temp,w
  6318     05A2  00B2               	movwf	??___flmul
  6319     05A3  0843               	movf	___flmul@temp+1,w
  6320     05A4  00B3               	movwf	??___flmul+1
  6321     05A5  01B4               	clrf	??___flmul+2
  6322     05A6  01B5               	clrf	??___flmul+3
  6323     05A7  0832               	movf	??___flmul,w
  6324     05A8  07BE               	addwf	___flmul@prod,f
  6325     05A9  0833               	movf	??___flmul+1,w
  6326     05AA  1103               	clrz
  6327     05AB  1803               	skipnc
  6328     05AC  3E01               	addlw	1
  6329     05AD  1903               	skipnz
  6330     05AE  2DB0               	goto	u4531
  6331     05AF  07BF               	addwf	___flmul@prod+1,f
  6332     05B0                     u4531:
  6333     05B0  0834               	movf	??___flmul+2,w
  6334     05B1  1103               	clrz
  6335     05B2  1803               	skipnc
  6336     05B3  3E01               	addlw	1
  6337     05B4  1903               	skipnz
  6338     05B5  2DB7               	goto	u4532
  6339     05B6  07C0               	addwf	___flmul@prod+2,f
  6340     05B7                     u4532:
  6341     05B7  0835               	movf	??___flmul+3,w
  6342     05B8  1103               	clrz
  6343     05B9  1803               	skipnc
  6344     05BA  3E01               	addlw	1
  6345     05BB  1903               	skipnz
  6346     05BC  2DBE               	goto	u4533
  6347     05BD  07C1               	addwf	___flmul@prod+3,f
  6348     05BE                     u4533:
  6349     05BE                     l3284:
  6350     05BE  082C               	movf	___flmul@b+2,w
  6351     05BF  00F2               	movwf	__Umul8_16@multiplicand
  6352     05C0  082F               	movf	___flmul@a+1,w
  6353     05C1  160A  118A  25A2  120A  118A  	fcall	__Umul8_16
  6354     05C6  0873               	movf	?__Umul8_16+1,w
  6355     05C7  1283               	bcf	3,5	;RP0=0, select bank0
  6356     05C8  1303               	bcf	3,6	;RP1=0, select bank0
  6357     05C9  00C3               	movwf	___flmul@temp+1
  6358     05CA  0872               	movf	?__Umul8_16,w
  6359     05CB  00C2               	movwf	___flmul@temp
  6360     05CC                     l3286:
  6361     05CC  0842               	movf	___flmul@temp,w
  6362     05CD  00B2               	movwf	??___flmul
  6363     05CE  0843               	movf	___flmul@temp+1,w
  6364     05CF  00B3               	movwf	??___flmul+1
  6365     05D0  01B4               	clrf	??___flmul+2
  6366     05D1  01B5               	clrf	??___flmul+3
  6367     05D2  0832               	movf	??___flmul,w
  6368     05D3  07BE               	addwf	___flmul@prod,f
  6369     05D4  0833               	movf	??___flmul+1,w
  6370     05D5  1103               	clrz
  6371     05D6  1803               	skipnc
  6372     05D7  3E01               	addlw	1
  6373     05D8  1903               	skipnz
  6374     05D9  2DDB               	goto	u4541
  6375     05DA  07BF               	addwf	___flmul@prod+1,f
  6376     05DB                     u4541:
  6377     05DB  0834               	movf	??___flmul+2,w
  6378     05DC  1103               	clrz
  6379     05DD  1803               	skipnc
  6380     05DE  3E01               	addlw	1
  6381     05DF  1903               	skipnz
  6382     05E0  2DE2               	goto	u4542
  6383     05E1  07C0               	addwf	___flmul@prod+2,f
  6384     05E2                     u4542:
  6385     05E2  0835               	movf	??___flmul+3,w
  6386     05E3  1103               	clrz
  6387     05E4  1803               	skipnc
  6388     05E5  3E01               	addlw	1
  6389     05E6  1903               	skipnz
  6390     05E7  2DE9               	goto	u4543
  6391     05E8  07C1               	addwf	___flmul@prod+3,f
  6392     05E9                     u4543:
  6393     05E9  082C               	movf	___flmul@b+2,w
  6394     05EA  00F2               	movwf	__Umul8_16@multiplicand
  6395     05EB  0830               	movf	___flmul@a+2,w
  6396     05EC  160A  118A  25A2  120A  118A  	fcall	__Umul8_16
  6397     05F1  0873               	movf	?__Umul8_16+1,w
  6398     05F2  1283               	bcf	3,5	;RP0=0, select bank0
  6399     05F3  1303               	bcf	3,6	;RP1=0, select bank0
  6400     05F4  00C3               	movwf	___flmul@temp+1
  6401     05F5  0872               	movf	?__Umul8_16,w
  6402     05F6  00C2               	movwf	___flmul@temp
  6403     05F7                     l3288:
  6404     05F7  0842               	movf	___flmul@temp,w
  6405     05F8  00B2               	movwf	??___flmul
  6406     05F9  0843               	movf	___flmul@temp+1,w
  6407     05FA  00B3               	movwf	??___flmul+1
  6408     05FB  01B4               	clrf	??___flmul+2
  6409     05FC  01B5               	clrf	??___flmul+3
  6410     05FD  3008               	movlw	8
  6411     05FE                     u4555:
  6412     05FE  1003               	clrc
  6413     05FF  0DB2               	rlf	??___flmul,f
  6414     0600  0DB3               	rlf	??___flmul+1,f
  6415     0601  0DB4               	rlf	??___flmul+2,f
  6416     0602  0DB5               	rlf	??___flmul+3,f
  6417     0603                     u4550:
  6418     0603  3EFF               	addlw	-1
  6419     0604  1D03               	skipz
  6420     0605  2DFE               	goto	u4555
  6421     0606  0832               	movf	??___flmul,w
  6422     0607  07BE               	addwf	___flmul@prod,f
  6423     0608  0833               	movf	??___flmul+1,w
  6424     0609  1103               	clrz
  6425     060A  1803               	skipnc
  6426     060B  3E01               	addlw	1
  6427     060C  1903               	skipnz
  6428     060D  2E0F               	goto	u4561
  6429     060E  07BF               	addwf	___flmul@prod+1,f
  6430     060F                     u4561:
  6431     060F  0834               	movf	??___flmul+2,w
  6432     0610  1103               	clrz
  6433     0611  1803               	skipnc
  6434     0612  3E01               	addlw	1
  6435     0613  1903               	skipnz
  6436     0614  2E16               	goto	u4562
  6437     0615  07C0               	addwf	___flmul@prod+2,f
  6438     0616                     u4562:
  6439     0616  0835               	movf	??___flmul+3,w
  6440     0617  1103               	clrz
  6441     0618  1803               	skipnc
  6442     0619  3E01               	addlw	1
  6443     061A  1903               	skipnz
  6444     061B  2E1D               	goto	u4563
  6445     061C  07C1               	addwf	___flmul@prod+3,f
  6446     061D                     u4563:
  6447     061D                     l3290:
  6448     061D  0839               	movf	___flmul@grs,w
  6449     061E  00B2               	movwf	??___flmul
  6450     061F  083A               	movf	___flmul@grs+1,w
  6451     0620  00B3               	movwf	??___flmul+1
  6452     0621  083B               	movf	___flmul@grs+2,w
  6453     0622  00B4               	movwf	??___flmul+2
  6454     0623  083C               	movf	___flmul@grs+3,w
  6455     0624  00B5               	movwf	??___flmul+3
  6456     0625  3018               	movlw	24
  6457     0626                     u4575:
  6458     0626  1003               	clrc
  6459     0627  0CB5               	rrf	??___flmul+3,f
  6460     0628  0CB4               	rrf	??___flmul+2,f
  6461     0629  0CB3               	rrf	??___flmul+1,f
  6462     062A  0CB2               	rrf	??___flmul,f
  6463     062B                     u4570:
  6464     062B  3EFF               	addlw	-1
  6465     062C  1D03               	skipz
  6466     062D  2E26               	goto	u4575
  6467     062E  0832               	movf	??___flmul,w
  6468     062F  07BE               	addwf	___flmul@prod,f
  6469     0630  0833               	movf	??___flmul+1,w
  6470     0631  1103               	clrz
  6471     0632  1803               	skipnc
  6472     0633  3E01               	addlw	1
  6473     0634  1903               	skipnz
  6474     0635  2E37               	goto	u4581
  6475     0636  07BF               	addwf	___flmul@prod+1,f
  6476     0637                     u4581:
  6477     0637  0834               	movf	??___flmul+2,w
  6478     0638  1103               	clrz
  6479     0639  1803               	skipnc
  6480     063A  3E01               	addlw	1
  6481     063B  1903               	skipnz
  6482     063C  2E3E               	goto	u4582
  6483     063D  07C0               	addwf	___flmul@prod+2,f
  6484     063E                     u4582:
  6485     063E  0835               	movf	??___flmul+3,w
  6486     063F  1103               	clrz
  6487     0640  1803               	skipnc
  6488     0641  3E01               	addlw	1
  6489     0642  1903               	skipnz
  6490     0643  2E45               	goto	u4583
  6491     0644  07C1               	addwf	___flmul@prod+3,f
  6492     0645                     u4583:
  6493     0645                     l3292:
  6494     0645  3008               	movlw	8
  6495     0646  00B2               	movwf	??___flmul
  6496     0647                     u4595:
  6497     0647  1003               	clrc
  6498     0648  0DB9               	rlf	___flmul@grs,f
  6499     0649  0DBA               	rlf	___flmul@grs+1,f
  6500     064A  0DBB               	rlf	___flmul@grs+2,f
  6501     064B  0DBC               	rlf	___flmul@grs+3,f
  6502     064C  0BB2               	decfsz	??___flmul,f
  6503     064D  2E47               	goto	u4595
  6504     064E                     l3294:
  6505     064E  083D               	movf	___flmul@bexp,w
  6506     064F  0738               	addwf	___flmul@aexp,w
  6507     0650  00B2               	movwf	??___flmul
  6508     0651  01B3               	clrf	??___flmul+1
  6509     0652  0DB3               	rlf	??___flmul+1,f
  6510     0653  0832               	movf	??___flmul,w
  6511     0654  3E82               	addlw	130
  6512     0655  00C2               	movwf	___flmul@temp
  6513     0656  0833               	movf	??___flmul+1,w
  6514     0657  1803               	skipnc
  6515     0658  3E01               	addlw	1
  6516     0659  3EFF               	addlw	255
  6517     065A  00C3               	movwf	___flmul@temp+1
  6518     065B  2E79               	goto	l3306
  6519     065C                     l3296:
  6520     065C  3001               	movlw	1
  6521     065D  00B2               	movwf	??___flmul
  6522     065E                     u4605:
  6523     065E  1003               	clrc
  6524     065F  0DBE               	rlf	___flmul@prod,f
  6525     0660  0DBF               	rlf	___flmul@prod+1,f
  6526     0661  0DC0               	rlf	___flmul@prod+2,f
  6527     0662  0DC1               	rlf	___flmul@prod+3,f
  6528     0663  0BB2               	decfsz	??___flmul,f
  6529     0664  2E5E               	goto	u4605
  6530     0665                     l3298:
  6531     0665  1FBC               	btfss	___flmul@grs+3,7
  6532     0666  2E68               	goto	u4611
  6533     0667  2E69               	goto	u4610
  6534     0668                     u4611:
  6535     0668  2E6A               	goto	l3302
  6536     0669                     u4610:
  6537     0669                     l3300:
  6538     0669  143E               	bsf	___flmul@prod,0
  6539     066A                     l3302:
  6540     066A  3001               	movlw	1
  6541     066B  00B2               	movwf	??___flmul
  6542     066C                     u4625:
  6543     066C  1003               	clrc
  6544     066D  0DB9               	rlf	___flmul@grs,f
  6545     066E  0DBA               	rlf	___flmul@grs+1,f
  6546     066F  0DBB               	rlf	___flmul@grs+2,f
  6547     0670  0DBC               	rlf	___flmul@grs+3,f
  6548     0671  0BB2               	decfsz	??___flmul,f
  6549     0672  2E6C               	goto	u4625
  6550     0673                     l3304:
  6551     0673  30FF               	movlw	255
  6552     0674  07C2               	addwf	___flmul@temp,f
  6553     0675  1803               	skipnc
  6554     0676  0AC3               	incf	___flmul@temp+1,f
  6555     0677  30FF               	movlw	255
  6556     0678  07C3               	addwf	___flmul@temp+1,f
  6557     0679                     l3306:
  6558     0679  1FC0               	btfss	___flmul@prod+2,7
  6559     067A  2E7C               	goto	u4631
  6560     067B  2E7D               	goto	u4630
  6561     067C                     u4631:
  6562     067C  2E5C               	goto	l3296
  6563     067D                     u4630:
  6564     067D                     l3308:
  6565     067D  01B8               	clrf	___flmul@aexp
  6566     067E                     l3310:
  6567     067E  1FBC               	btfss	___flmul@grs+3,7
  6568     067F  2E81               	goto	u4641
  6569     0680  2E82               	goto	u4640
  6570     0681                     u4641:
  6571     0681  2E9E               	goto	l3318
  6572     0682                     u4640:
  6573     0682                     l3312:
  6574     0682  30FF               	movlw	255
  6575     0683  0539               	andwf	___flmul@grs,w
  6576     0684  00B2               	movwf	??___flmul
  6577     0685  30FF               	movlw	255
  6578     0686  053A               	andwf	___flmul@grs+1,w
  6579     0687  00B3               	movwf	??___flmul+1
  6580     0688  30FF               	movlw	255
  6581     0689  053B               	andwf	___flmul@grs+2,w
  6582     068A  00B4               	movwf	??___flmul+2
  6583     068B  307F               	movlw	127
  6584     068C  053C               	andwf	___flmul@grs+3,w
  6585     068D  00B5               	movwf	??___flmul+3
  6586     068E  0835               	movf	??___flmul+3,w
  6587     068F  0434               	iorwf	??___flmul+2,w
  6588     0690  0433               	iorwf	??___flmul+1,w
  6589     0691  0432               	iorwf	??___flmul,w
  6590     0692  1903               	skipnz
  6591     0693  2E95               	goto	u4651
  6592     0694  2E96               	goto	u4650
  6593     0695                     u4651:
  6594     0695  2E99               	goto	l815
  6595     0696                     u4650:
  6596     0696                     l3314:
  6597     0696  3001               	movlw	1
  6598     0697  00B8               	movwf	___flmul@aexp
  6599     0698  2E9E               	goto	l3318
  6600     0699                     l815:
  6601     0699  1C3E               	btfss	___flmul@prod,0
  6602     069A  2E9C               	goto	u4661
  6603     069B  2E9D               	goto	u4660
  6604     069C                     u4661:
  6605     069C  2E9E               	goto	l3318
  6606     069D                     u4660:
  6607     069D  2E96               	goto	l3314
  6608     069E                     l3318:
  6609     069E  0838               	movf	___flmul@aexp,w
  6610     069F  1903               	btfsc	3,2
  6611     06A0  2EA2               	goto	u4671
  6612     06A1  2EA3               	goto	u4670
  6613     06A2                     u4671:
  6614     06A2  2ED4               	goto	l3328
  6615     06A3                     u4670:
  6616     06A3                     l3320:
  6617     06A3  3001               	movlw	1
  6618     06A4  07BE               	addwf	___flmul@prod,f
  6619     06A5  3000               	movlw	0
  6620     06A6  1803               	skipnc
  6621     06A7  3001               	movlw	1
  6622     06A8  07BF               	addwf	___flmul@prod+1,f
  6623     06A9  3000               	movlw	0
  6624     06AA  1803               	skipnc
  6625     06AB  3001               	movlw	1
  6626     06AC  07C0               	addwf	___flmul@prod+2,f
  6627     06AD  3000               	movlw	0
  6628     06AE  1803               	skipnc
  6629     06AF  3001               	movlw	1
  6630     06B0  07C1               	addwf	___flmul@prod+3,f
  6631     06B1                     l3322:
  6632     06B1  1C41               	btfss	___flmul@prod+3,0
  6633     06B2  2EB4               	goto	u4681
  6634     06B3  2EB5               	goto	u4680
  6635     06B4                     u4681:
  6636     06B4  2ED4               	goto	l3328
  6637     06B5                     u4680:
  6638     06B5                     l3324:
  6639     06B5  083E               	movf	___flmul@prod,w
  6640     06B6  00B2               	movwf	??___flmul
  6641     06B7  083F               	movf	___flmul@prod+1,w
  6642     06B8  00B3               	movwf	??___flmul+1
  6643     06B9  0840               	movf	___flmul@prod+2,w
  6644     06BA  00B4               	movwf	??___flmul+2
  6645     06BB  0841               	movf	___flmul@prod+3,w
  6646     06BC  00B5               	movwf	??___flmul+3
  6647     06BD  3001               	movlw	1
  6648     06BE  00B6               	movwf	??___flmul+4
  6649     06BF                     u4695:
  6650     06BF  0D35               	rlf	??___flmul+3,w
  6651     06C0  0CB5               	rrf	??___flmul+3,f
  6652     06C1  0CB4               	rrf	??___flmul+2,f
  6653     06C2  0CB3               	rrf	??___flmul+1,f
  6654     06C3  0CB2               	rrf	??___flmul,f
  6655     06C4                     u4690:
  6656     06C4  0BB6               	decfsz	??___flmul+4,f
  6657     06C5  2EBF               	goto	u4695
  6658     06C6  0835               	movf	??___flmul+3,w
  6659     06C7  00C1               	movwf	___flmul@prod+3
  6660     06C8  0834               	movf	??___flmul+2,w
  6661     06C9  00C0               	movwf	___flmul@prod+2
  6662     06CA  0833               	movf	??___flmul+1,w
  6663     06CB  00BF               	movwf	___flmul@prod+1
  6664     06CC  0832               	movf	??___flmul,w
  6665     06CD  00BE               	movwf	___flmul@prod
  6666     06CE                     l3326:
  6667     06CE  3001               	movlw	1
  6668     06CF  07C2               	addwf	___flmul@temp,f
  6669     06D0  1803               	skipnc
  6670     06D1  0AC3               	incf	___flmul@temp+1,f
  6671     06D2  3000               	movlw	0
  6672     06D3  07C3               	addwf	___flmul@temp+1,f
  6673     06D4                     l3328:
  6674     06D4  0843               	movf	___flmul@temp+1,w
  6675     06D5  3A80               	xorlw	128
  6676     06D6  00FF               	movwf	btemp+1
  6677     06D7  3080               	movlw	128
  6678     06D8  027F               	subwf	btemp+1,w
  6679     06D9  1D03               	skipz
  6680     06DA  2EDD               	goto	u4705
  6681     06DB  30FF               	movlw	255
  6682     06DC  0242               	subwf	___flmul@temp,w
  6683     06DD                     u4705:
  6684     06DD  1C03               	skipc
  6685     06DE  2EE0               	goto	u4701
  6686     06DF  2EE1               	goto	u4700
  6687     06E0                     u4701:
  6688     06E0  2EEC               	goto	l3332
  6689     06E1                     u4700:
  6690     06E1                     l3330:
  6691     06E1  307F               	movlw	127
  6692     06E2  1283               	bcf	3,5	;RP0=0, select bank0
  6693     06E3  1303               	bcf	3,6	;RP1=0, select bank0
  6694     06E4  00C1               	movwf	___flmul@prod+3
  6695     06E5  3080               	movlw	128
  6696     06E6  00C0               	movwf	___flmul@prod+2
  6697     06E7  3000               	movlw	0
  6698     06E8  00BF               	movwf	___flmul@prod+1
  6699     06E9  3000               	movlw	0
  6700     06EA  00BE               	movwf	___flmul@prod
  6701     06EB  2F1D               	goto	l821
  6702     06EC                     l3332:
  6703     06EC  1283               	bcf	3,5	;RP0=0, select bank0
  6704     06ED  1303               	bcf	3,6	;RP1=0, select bank0
  6705     06EE  0843               	movf	___flmul@temp+1,w
  6706     06EF  3A80               	xorlw	128
  6707     06F0  00FF               	movwf	btemp+1
  6708     06F1  3080               	movlw	128
  6709     06F2  027F               	subwf	btemp+1,w
  6710     06F3  1D03               	skipz
  6711     06F4  2EF7               	goto	u4715
  6712     06F5  3001               	movlw	1
  6713     06F6  0242               	subwf	___flmul@temp,w
  6714     06F7                     u4715:
  6715     06F7  1803               	skipnc
  6716     06F8  2EFA               	goto	u4711
  6717     06F9  2EFB               	goto	u4710
  6718     06FA                     u4711:
  6719     06FA  2F07               	goto	l3338
  6720     06FB                     u4710:
  6721     06FB                     l3334:
  6722     06FB  3000               	movlw	0
  6723     06FC  1283               	bcf	3,5	;RP0=0, select bank0
  6724     06FD  1303               	bcf	3,6	;RP1=0, select bank0
  6725     06FE  00C1               	movwf	___flmul@prod+3
  6726     06FF  3000               	movlw	0
  6727     0700  00C0               	movwf	___flmul@prod+2
  6728     0701  3000               	movlw	0
  6729     0702  00BF               	movwf	___flmul@prod+1
  6730     0703  3000               	movlw	0
  6731     0704  00BE               	movwf	___flmul@prod
  6732     0705                     l3336:
  6733     0705  01B7               	clrf	___flmul@sign
  6734     0706  2F1D               	goto	l821
  6735     0707                     l3338:
  6736     0707  1283               	bcf	3,5	;RP0=0, select bank0
  6737     0708  1303               	bcf	3,6	;RP1=0, select bank0
  6738     0709  0842               	movf	___flmul@temp,w
  6739     070A  00BD               	movwf	___flmul@bexp
  6740     070B  30FF               	movlw	255
  6741     070C  05BE               	andwf	___flmul@prod,f
  6742     070D  30FF               	movlw	255
  6743     070E  05BF               	andwf	___flmul@prod+1,f
  6744     070F  307F               	movlw	127
  6745     0710  05C0               	andwf	___flmul@prod+2,f
  6746     0711  3000               	movlw	0
  6747     0712  05C1               	andwf	___flmul@prod+3,f
  6748     0713                     l3340:
  6749     0713  1C3D               	btfss	___flmul@bexp,0
  6750     0714  2F16               	goto	u4721
  6751     0715  2F17               	goto	u4720
  6752     0716                     u4721:
  6753     0716  2F18               	goto	l3344
  6754     0717                     u4720:
  6755     0717                     l3342:
  6756     0717  17C0               	bsf	___flmul@prod+2,7
  6757     0718                     l3344:
  6758     0718  083D               	movf	___flmul@bexp,w
  6759     0719  00B2               	movwf	??___flmul
  6760     071A  1003               	clrc
  6761     071B  0C32               	rrf	??___flmul,w
  6762     071C  00C1               	movwf	___flmul@prod+3
  6763     071D                     l821:
  6764     071D  0837               	movf	___flmul@sign,w
  6765     071E  04C1               	iorwf	___flmul@prod+3,f
  6766     071F                     l3346:
  6767     071F  0841               	movf	___flmul@prod+3,w
  6768     0720  00AD               	movwf	?___flmul+3
  6769     0721  0840               	movf	___flmul@prod+2,w
  6770     0722  00AC               	movwf	?___flmul+2
  6771     0723  083F               	movf	___flmul@prod+1,w
  6772     0724  00AB               	movwf	?___flmul+1
  6773     0725  083E               	movf	___flmul@prod,w
  6774     0726  00AA               	movwf	?___flmul
  6775     0727                     l809:
  6776     0727  0008               	return
  6777     0728                     __end_of___flmul:
  6778                           
  6779                           	psect	text13
  6780     15A2                     __ptext13:	
  6781 ;; *************** function __Umul8_16 *****************
  6782 ;; Defined at:
  6783 ;;		line 4 in file "C:\Program Files\Microchip\xc8\v3.00\pic\sources\c99\common\Umul8_16.c"
  6784 ;; Parameters:    Size  Location     Type
  6785 ;;  multiplier      1    wreg     unsigned char 
  6786 ;;  multiplicand    1    2[COMMON] unsigned char 
  6787 ;; Auto vars:     Size  Location     Type
  6788 ;;  multiplier      1    4[BANK0 ] unsigned char 
  6789 ;;  word_mpld       2    2[BANK0 ] unsigned short 
  6790 ;;  product         2    0[BANK0 ] unsigned short 
  6791 ;; Return value:  Size  Location     Type
  6792 ;;                  2    2[COMMON] unsigned int 
  6793 ;; Registers used:
  6794 ;;		wreg, status,2, status,0
  6795 ;; Tracked objects:
  6796 ;;		On entry : 0/0
  6797 ;;		On exit  : 0/0
  6798 ;;		Unchanged: 0/0
  6799 ;; Data sizes:     COMMON   BANK0   BANK1   BANK3   BANK2
  6800 ;;      Params:         2       0       0       0       0
  6801 ;;      Locals:         0       5       0       0       0
  6802 ;;      Temps:          2       0       0       0       0
  6803 ;;      Totals:         4       5       0       0       0
  6804 ;;Total ram usage:        9 bytes
  6805 ;; Hardware stack levels used: 1
  6806 ;; Hardware stack levels required when called: 1
  6807 ;; This function calls:
  6808 ;;		Nothing
  6809 ;; This function is called by:
  6810 ;;		___flmul
  6811 ;; This function uses a non-reentrant model
  6812 ;;
  6813                           
  6814     15A2                     __Umul8_16:	
  6815                           ;psect for function __Umul8_16
  6816                           
  6817                           
  6818                           ;incstack = 0
  6819                           ; Regs used in __Umul8_16: [wreg+status,2+status,0]
  6820                           ;__Umul8_16@multiplier stored from wreg
  6821     15A2  1283               	bcf	3,5	;RP0=0, select bank0
  6822     15A3  1303               	bcf	3,6	;RP1=0, select bank0
  6823     15A4  00A4               	movwf	__Umul8_16@multiplier
  6824     15A5                     l2998:
  6825     15A5  01A0               	clrf	__Umul8_16@product
  6826     15A6  01A1               	clrf	__Umul8_16@product+1
  6827     15A7                     l3000:
  6828     15A7  0872               	movf	__Umul8_16@multiplicand,w
  6829     15A8  00F4               	movwf	??__Umul8_16
  6830     15A9  01F5               	clrf	??__Umul8_16+1
  6831     15AA  0874               	movf	??__Umul8_16,w
  6832     15AB  00A2               	movwf	__Umul8_16@word_mpld
  6833     15AC  0875               	movf	??__Umul8_16+1,w
  6834     15AD  00A3               	movwf	__Umul8_16@word_mpld+1
  6835     15AE                     l3002:
  6836     15AE  1C24               	btfss	__Umul8_16@multiplier,0
  6837     15AF  2DB1               	goto	u3911
  6838     15B0  2DB2               	goto	u3910
  6839     15B1                     u3911:
  6840     15B1  2DB8               	goto	l828
  6841     15B2                     u3910:
  6842     15B2                     l3004:
  6843     15B2  0822               	movf	__Umul8_16@word_mpld,w
  6844     15B3  07A0               	addwf	__Umul8_16@product,f
  6845     15B4  1803               	skipnc
  6846     15B5  0AA1               	incf	__Umul8_16@product+1,f
  6847     15B6  0823               	movf	__Umul8_16@word_mpld+1,w
  6848     15B7  07A1               	addwf	__Umul8_16@product+1,f
  6849     15B8                     l828:
  6850     15B8  3001               	movlw	1
  6851     15B9                     u3925:
  6852     15B9  1003               	clrc
  6853     15BA  0DA2               	rlf	__Umul8_16@word_mpld,f
  6854     15BB  0DA3               	rlf	__Umul8_16@word_mpld+1,f
  6855     15BC  3EFF               	addlw	-1
  6856     15BD  1D03               	skipz
  6857     15BE  2DB9               	goto	u3925
  6858     15BF  1003               	clrc
  6859     15C0  0CA4               	rrf	__Umul8_16@multiplier,f
  6860     15C1                     l3006:
  6861     15C1  0824               	movf	__Umul8_16@multiplier,w
  6862     15C2  1D03               	btfss	3,2
  6863     15C3  2DC5               	goto	u3931
  6864     15C4  2DC6               	goto	u3930
  6865     15C5                     u3931:
  6866     15C5  2DAE               	goto	l3002
  6867     15C6                     u3930:
  6868     15C6                     l3008:
  6869     15C6  0821               	movf	__Umul8_16@product+1,w
  6870     15C7  00F3               	movwf	?__Umul8_16+1
  6871     15C8  0820               	movf	__Umul8_16@product,w
  6872     15C9  00F2               	movwf	?__Umul8_16
  6873     15CA                     l830:
  6874     15CA  0008               	return
  6875     15CB                     __end_of__Umul8_16:
  6876                           
  6877                           	psect	text14
  6878     08FF                     __ptext14:	
  6879 ;; *************** function ___flge *****************
  6880 ;; Defined at:
  6881 ;;		line 4 in file "C:\Program Files\Microchip\xc8\v3.00\pic\sources\c99\common\flge.c"
  6882 ;; Parameters:    Size  Location     Type
  6883 ;;  ff1             4   44[BANK0 ] unsigned int 
  6884 ;;  ff2             4   48[BANK0 ] unsigned int 
  6885 ;; Auto vars:     Size  Location     Type
  6886 ;;		None
  6887 ;; Return value:  Size  Location     Type
  6888 ;;		None               void
  6889 ;; Registers used:
  6890 ;;		wreg, status,2, status,0
  6891 ;; Tracked objects:
  6892 ;;		On entry : 0/0
  6893 ;;		On exit  : 0/0
  6894 ;;		Unchanged: 0/0
  6895 ;; Data sizes:     COMMON   BANK0   BANK1   BANK3   BANK2
  6896 ;;      Params:         0       8       0       0       0
  6897 ;;      Locals:         0       0       0       0       0
  6898 ;;      Temps:          0       4       0       0       0
  6899 ;;      Totals:         0      12       0       0       0
  6900 ;;Total ram usage:       12 bytes
  6901 ;; Hardware stack levels used: 1
  6902 ;; Hardware stack levels required when called: 1
  6903 ;; This function calls:
  6904 ;;		Nothing
  6905 ;; This function is called by:
  6906 ;;		_run_program
  6907 ;; This function uses a non-reentrant model
  6908 ;;
  6909                           
  6910     08FF                     ___flge:	
  6911                           ;psect for function ___flge
  6912                           
  6913     08FF                     l3146:	
  6914                           ;incstack = 0
  6915                           ; Regs used in ___flge: [wreg+status,2+status,0]
  6916                           
  6917     08FF  3000               	movlw	0
  6918     0900  1283               	bcf	3,5	;RP0=0, select bank0
  6919     0901  1303               	bcf	3,6	;RP1=0, select bank0
  6920     0902  054C               	andwf	___flge@ff1,w
  6921     0903  00D4               	movwf	??___flge
  6922     0904  3000               	movlw	0
  6923     0905  054D               	andwf	___flge@ff1+1,w
  6924     0906  00D5               	movwf	??___flge+1
  6925     0907  3080               	movlw	128
  6926     0908  054E               	andwf	___flge@ff1+2,w
  6927     0909  00D6               	movwf	??___flge+2
  6928     090A  307F               	movlw	127
  6929     090B  054F               	andwf	___flge@ff1+3,w
  6930     090C  00D7               	movwf	??___flge+3
  6931     090D  0857               	movf	??___flge+3,w
  6932     090E  0456               	iorwf	??___flge+2,w
  6933     090F  0455               	iorwf	??___flge+1,w
  6934     0910  0454               	iorwf	??___flge,w
  6935     0911  1D03               	skipz
  6936     0912  2914               	goto	u4191
  6937     0913  2915               	goto	u4190
  6938     0914                     u4191:
  6939     0914  291D               	goto	l590
  6940     0915                     u4190:
  6941     0915                     l3148:
  6942     0915  3000               	movlw	0
  6943     0916  00CF               	movwf	___flge@ff1+3
  6944     0917  3000               	movlw	0
  6945     0918  00CE               	movwf	___flge@ff1+2
  6946     0919  3000               	movlw	0
  6947     091A  00CD               	movwf	___flge@ff1+1
  6948     091B  3000               	movlw	0
  6949     091C  00CC               	movwf	___flge@ff1
  6950     091D                     l590:
  6951     091D  3000               	movlw	0
  6952     091E  0550               	andwf	___flge@ff2,w
  6953     091F  00D4               	movwf	??___flge
  6954     0920  3000               	movlw	0
  6955     0921  0551               	andwf	___flge@ff2+1,w
  6956     0922  00D5               	movwf	??___flge+1
  6957     0923  3080               	movlw	128
  6958     0924  0552               	andwf	___flge@ff2+2,w
  6959     0925  00D6               	movwf	??___flge+2
  6960     0926  307F               	movlw	127
  6961     0927  0553               	andwf	___flge@ff2+3,w
  6962     0928  00D7               	movwf	??___flge+3
  6963     0929  0857               	movf	??___flge+3,w
  6964     092A  0456               	iorwf	??___flge+2,w
  6965     092B  0455               	iorwf	??___flge+1,w
  6966     092C  0454               	iorwf	??___flge,w
  6967     092D  1D03               	skipz
  6968     092E  2930               	goto	u4201
  6969     092F  2931               	goto	u4200
  6970     0930                     u4201:
  6971     0930  2939               	goto	l3152
  6972     0931                     u4200:
  6973     0931                     l3150:
  6974     0931  3000               	movlw	0
  6975     0932  00D3               	movwf	___flge@ff2+3
  6976     0933  3000               	movlw	0
  6977     0934  00D2               	movwf	___flge@ff2+2
  6978     0935  3000               	movlw	0
  6979     0936  00D1               	movwf	___flge@ff2+1
  6980     0937  3000               	movlw	0
  6981     0938  00D0               	movwf	___flge@ff2
  6982     0939                     l3152:
  6983     0939  1FCF               	btfss	___flge@ff1+3,7
  6984     093A  293C               	goto	u4211
  6985     093B  293D               	goto	u4210
  6986     093C                     u4211:
  6987     093C  2961               	goto	l3156
  6988     093D                     u4210:
  6989     093D                     l3154:
  6990     093D  3000               	movlw	0
  6991     093E  00D4               	movwf	??___flge
  6992     093F  3000               	movlw	0
  6993     0940  00D5               	movwf	??___flge+1
  6994     0941  3000               	movlw	0
  6995     0942  00D6               	movwf	??___flge+2
  6996     0943  3080               	movlw	128
  6997     0944  00D7               	movwf	??___flge+3
  6998     0945  084C               	movf	___flge@ff1,w
  6999     0946  02D4               	subwf	??___flge,f
  7000     0947  084D               	movf	___flge@ff1+1,w
  7001     0948  1C03               	skipc
  7002     0949  0F4D               	incfsz	___flge@ff1+1,w
  7003     094A  294C               	goto	u4221
  7004     094B  294D               	goto	u4222
  7005     094C                     u4221:
  7006     094C  02D5               	subwf	??___flge+1,f
  7007     094D                     u4222:
  7008     094D  084E               	movf	___flge@ff1+2,w
  7009     094E  1C03               	skipc
  7010     094F  0F4E               	incfsz	___flge@ff1+2,w
  7011     0950  2952               	goto	u4223
  7012     0951  2953               	goto	u4224
  7013     0952                     u4223:
  7014     0952  02D6               	subwf	??___flge+2,f
  7015     0953                     u4224:
  7016     0953  084F               	movf	___flge@ff1+3,w
  7017     0954  1C03               	skipc
  7018     0955  0F4F               	incfsz	___flge@ff1+3,w
  7019     0956  2958               	goto	u4225
  7020     0957  2959               	goto	u4226
  7021     0958                     u4225:
  7022     0958  02D7               	subwf	??___flge+3,f
  7023     0959                     u4226:
  7024     0959  0857               	movf	??___flge+3,w
  7025     095A  00CF               	movwf	___flge@ff1+3
  7026     095B  0856               	movf	??___flge+2,w
  7027     095C  00CE               	movwf	___flge@ff1+2
  7028     095D  0855               	movf	??___flge+1,w
  7029     095E  00CD               	movwf	___flge@ff1+1
  7030     095F  0854               	movf	??___flge,w
  7031     0960  00CC               	movwf	___flge@ff1
  7032     0961                     l3156:
  7033     0961  1FD3               	btfss	___flge@ff2+3,7
  7034     0962  2964               	goto	u4231
  7035     0963  2965               	goto	u4230
  7036     0964                     u4231:
  7037     0964  2989               	goto	l593
  7038     0965                     u4230:
  7039     0965                     l3158:
  7040     0965  3000               	movlw	0
  7041     0966  00D4               	movwf	??___flge
  7042     0967  3000               	movlw	0
  7043     0968  00D5               	movwf	??___flge+1
  7044     0969  3000               	movlw	0
  7045     096A  00D6               	movwf	??___flge+2
  7046     096B  3080               	movlw	128
  7047     096C  00D7               	movwf	??___flge+3
  7048     096D  0850               	movf	___flge@ff2,w
  7049     096E  02D4               	subwf	??___flge,f
  7050     096F  0851               	movf	___flge@ff2+1,w
  7051     0970  1C03               	skipc
  7052     0971  0F51               	incfsz	___flge@ff2+1,w
  7053     0972  2974               	goto	u4241
  7054     0973  2975               	goto	u4242
  7055     0974                     u4241:
  7056     0974  02D5               	subwf	??___flge+1,f
  7057     0975                     u4242:
  7058     0975  0852               	movf	___flge@ff2+2,w
  7059     0976  1C03               	skipc
  7060     0977  0F52               	incfsz	___flge@ff2+2,w
  7061     0978  297A               	goto	u4243
  7062     0979  297B               	goto	u4244
  7063     097A                     u4243:
  7064     097A  02D6               	subwf	??___flge+2,f
  7065     097B                     u4244:
  7066     097B  0853               	movf	___flge@ff2+3,w
  7067     097C  1C03               	skipc
  7068     097D  0F53               	incfsz	___flge@ff2+3,w
  7069     097E  2980               	goto	u4245
  7070     097F  2981               	goto	u4246
  7071     0980                     u4245:
  7072     0980  02D7               	subwf	??___flge+3,f
  7073     0981                     u4246:
  7074     0981  0857               	movf	??___flge+3,w
  7075     0982  00D3               	movwf	___flge@ff2+3
  7076     0983  0856               	movf	??___flge+2,w
  7077     0984  00D2               	movwf	___flge@ff2+2
  7078     0985  0855               	movf	??___flge+1,w
  7079     0986  00D1               	movwf	___flge@ff2+1
  7080     0987  0854               	movf	??___flge,w
  7081     0988  00D0               	movwf	___flge@ff2
  7082     0989                     l593:
  7083     0989  3080               	movlw	128
  7084     098A  06CF               	xorwf	___flge@ff1+3,f
  7085     098B  3080               	movlw	128
  7086     098C  06D3               	xorwf	___flge@ff2+3,f
  7087     098D  0853               	movf	___flge@ff2+3,w
  7088     098E  024F               	subwf	___flge@ff1+3,w
  7089     098F  1D03               	skipz
  7090     0990  299B               	goto	u4255
  7091     0991  0852               	movf	___flge@ff2+2,w
  7092     0992  024E               	subwf	___flge@ff1+2,w
  7093     0993  1D03               	skipz
  7094     0994  299B               	goto	u4255
  7095     0995  0851               	movf	___flge@ff2+1,w
  7096     0996  024D               	subwf	___flge@ff1+1,w
  7097     0997  1D03               	skipz
  7098     0998  299B               	goto	u4255
  7099     0999  0850               	movf	___flge@ff2,w
  7100     099A  024C               	subwf	___flge@ff1,w
  7101     099B                     u4255:
  7102     099B  1803               	skipnc
  7103     099C  299E               	goto	u4251
  7104     099D  299F               	goto	u4250
  7105     099E                     u4251:
  7106     099E  29A1               	goto	l3162
  7107     099F                     u4250:
  7108     099F                     l3160:
  7109     099F  1003               	clrc
  7110     09A0  29A2               	goto	l598
  7111     09A1                     l3162:
  7112     09A1  1403               	setc
  7113     09A2                     l598:
  7114     09A2  0008               	return
  7115     09A3                     __end_of___flge:
  7116                           
  7117                           	psect	text15
  7118     16D1                     __ptext15:	
  7119 ;; *************** function ___awmod *****************
  7120 ;; Defined at:
  7121 ;;		line 5 in file "C:\Program Files\Microchip\xc8\v3.00\pic\sources\c99\common\awmod.c"
  7122 ;; Parameters:    Size  Location     Type
  7123 ;;  divisor         2    2[COMMON] int 
  7124 ;;  dividend        2    4[COMMON] int 
  7125 ;; Auto vars:     Size  Location     Type
  7126 ;;  sign            1    7[COMMON] unsigned char 
  7127 ;;  counter         1    6[COMMON] unsigned char 
  7128 ;; Return value:  Size  Location     Type
  7129 ;;                  2    2[COMMON] int 
  7130 ;; Registers used:
  7131 ;;		wreg, status,2, status,0
  7132 ;; Tracked objects:
  7133 ;;		On entry : 0/0
  7134 ;;		On exit  : 0/0
  7135 ;;		Unchanged: 0/0
  7136 ;; Data sizes:     COMMON   BANK0   BANK1   BANK3   BANK2
  7137 ;;      Params:         4       0       0       0       0
  7138 ;;      Locals:         2       0       0       0       0
  7139 ;;      Temps:          0       0       0       0       0
  7140 ;;      Totals:         6       0       0       0       0
  7141 ;;Total ram usage:        6 bytes
  7142 ;; Hardware stack levels used: 1
  7143 ;; Hardware stack levels required when called: 1
  7144 ;; This function calls:
  7145 ;;		Nothing
  7146 ;; This function is called by:
  7147 ;;		_run_program
  7148 ;; This function uses a non-reentrant model
  7149 ;;
  7150                           
  7151     16D1                     ___awmod:	
  7152                           ;psect for function ___awmod
  7153                           
  7154     16D1                     l3108:	
  7155                           ;incstack = 0
  7156                           ; Regs used in ___awmod: [wreg+status,2+status,0]
  7157                           
  7158     16D1  01F7               	clrf	___awmod@sign
  7159     16D2                     l3110:
  7160     16D2  1FF5               	btfss	___awmod@dividend+1,7
  7161     16D3  2ED5               	goto	u4101
  7162     16D4  2ED6               	goto	u4100
  7163     16D5                     u4101:
  7164     16D5  2EDD               	goto	l3116
  7165     16D6                     u4100:
  7166     16D6                     l3112:
  7167     16D6  09F4               	comf	___awmod@dividend,f
  7168     16D7  09F5               	comf	___awmod@dividend+1,f
  7169     16D8  0AF4               	incf	___awmod@dividend,f
  7170     16D9  1903               	skipnz
  7171     16DA  0AF5               	incf	___awmod@dividend+1,f
  7172     16DB                     l3114:
  7173     16DB  3001               	movlw	1
  7174     16DC  00F7               	movwf	___awmod@sign
  7175     16DD                     l3116:
  7176     16DD  1FF3               	btfss	___awmod@divisor+1,7
  7177     16DE  2EE0               	goto	u4111
  7178     16DF  2EE1               	goto	u4110
  7179     16E0                     u4111:
  7180     16E0  2EE6               	goto	l3120
  7181     16E1                     u4110:
  7182     16E1                     l3118:
  7183     16E1  09F2               	comf	___awmod@divisor,f
  7184     16E2  09F3               	comf	___awmod@divisor+1,f
  7185     16E3  0AF2               	incf	___awmod@divisor,f
  7186     16E4  1903               	skipnz
  7187     16E5  0AF3               	incf	___awmod@divisor+1,f
  7188     16E6                     l3120:
  7189     16E6  0872               	movf	___awmod@divisor,w
  7190     16E7  0473               	iorwf	___awmod@divisor+1,w
  7191     16E8  1903               	btfsc	3,2
  7192     16E9  2EEB               	goto	u4121
  7193     16EA  2EEC               	goto	u4120
  7194     16EB                     u4121:
  7195     16EB  2F19               	goto	l3138
  7196     16EC                     u4120:
  7197     16EC                     l3122:
  7198     16EC  3001               	movlw	1
  7199     16ED  00F6               	movwf	___awmod@counter
  7200     16EE  2EF8               	goto	l3128
  7201     16EF                     l3124:
  7202     16EF  3001               	movlw	1
  7203     16F0                     u4135:
  7204     16F0  1003               	clrc
  7205     16F1  0DF2               	rlf	___awmod@divisor,f
  7206     16F2  0DF3               	rlf	___awmod@divisor+1,f
  7207     16F3  3EFF               	addlw	-1
  7208     16F4  1D03               	skipz
  7209     16F5  2EF0               	goto	u4135
  7210     16F6                     l3126:
  7211     16F6  3001               	movlw	1
  7212     16F7  07F6               	addwf	___awmod@counter,f
  7213     16F8                     l3128:
  7214     16F8  1FF3               	btfss	___awmod@divisor+1,7
  7215     16F9  2EFB               	goto	u4141
  7216     16FA  2EFC               	goto	u4140
  7217     16FB                     u4141:
  7218     16FB  2EEF               	goto	l3124
  7219     16FC                     u4140:
  7220     16FC                     l3130:
  7221     16FC  0873               	movf	___awmod@divisor+1,w
  7222     16FD  0275               	subwf	___awmod@dividend+1,w
  7223     16FE  1D03               	skipz
  7224     16FF  2F02               	goto	u4155
  7225     1700  0872               	movf	___awmod@divisor,w
  7226     1701  0274               	subwf	___awmod@dividend,w
  7227     1702                     u4155:
  7228     1702  1C03               	skipc
  7229     1703  2F05               	goto	u4151
  7230     1704  2F06               	goto	u4150
  7231     1705                     u4151:
  7232     1705  2F0C               	goto	l3134
  7233     1706                     u4150:
  7234     1706                     l3132:
  7235     1706  0872               	movf	___awmod@divisor,w
  7236     1707  02F4               	subwf	___awmod@dividend,f
  7237     1708  0873               	movf	___awmod@divisor+1,w
  7238     1709  1C03               	skipc
  7239     170A  03F5               	decf	___awmod@dividend+1,f
  7240     170B  02F5               	subwf	___awmod@dividend+1,f
  7241     170C                     l3134:
  7242     170C  3001               	movlw	1
  7243     170D                     u4165:
  7244     170D  1003               	clrc
  7245     170E  0CF3               	rrf	___awmod@divisor+1,f
  7246     170F  0CF2               	rrf	___awmod@divisor,f
  7247     1710  3EFF               	addlw	-1
  7248     1711  1D03               	skipz
  7249     1712  2F0D               	goto	u4165
  7250     1713                     l3136:
  7251     1713  3001               	movlw	1
  7252     1714  02F6               	subwf	___awmod@counter,f
  7253     1715  1D03               	btfss	3,2
  7254     1716  2F18               	goto	u4171
  7255     1717  2F19               	goto	u4170
  7256     1718                     u4171:
  7257     1718  2EFC               	goto	l3130
  7258     1719                     u4170:
  7259     1719                     l3138:
  7260     1719  0877               	movf	___awmod@sign,w
  7261     171A  1903               	btfsc	3,2
  7262     171B  2F1D               	goto	u4181
  7263     171C  2F1E               	goto	u4180
  7264     171D                     u4181:
  7265     171D  2F23               	goto	l3142
  7266     171E                     u4180:
  7267     171E                     l3140:
  7268     171E  09F4               	comf	___awmod@dividend,f
  7269     171F  09F5               	comf	___awmod@dividend+1,f
  7270     1720  0AF4               	incf	___awmod@dividend,f
  7271     1721  1903               	skipnz
  7272     1722  0AF5               	incf	___awmod@dividend+1,f
  7273     1723                     l3142:
  7274     1723  0875               	movf	___awmod@dividend+1,w
  7275     1724  00F3               	movwf	?___awmod+1
  7276     1725  0874               	movf	___awmod@dividend,w
  7277     1726  00F2               	movwf	?___awmod
  7278     1727                     l578:
  7279     1727  0008               	return
  7280     1728                     __end_of___awmod:
  7281                           
  7282                           	psect	text16
  7283     0805                     __ptext16:	
  7284 ;; *************** function ___awdiv *****************
  7285 ;; Defined at:
  7286 ;;		line 5 in file "C:\Program Files\Microchip\xc8\v3.00\pic\sources\c99\common\awdiv.c"
  7287 ;; Parameters:    Size  Location     Type
  7288 ;;  divisor         2    2[COMMON] int 
  7289 ;;  dividend        2    4[COMMON] int 
  7290 ;; Auto vars:     Size  Location     Type
  7291 ;;  quotient        2    2[BANK0 ] int 
  7292 ;;  sign            1    1[BANK0 ] unsigned char 
  7293 ;;  counter         1    0[BANK0 ] unsigned char 
  7294 ;; Return value:  Size  Location     Type
  7295 ;;                  2    2[COMMON] int 
  7296 ;; Registers used:
  7297 ;;		wreg, status,2, status,0
  7298 ;; Tracked objects:
  7299 ;;		On entry : 0/0
  7300 ;;		On exit  : 0/0
  7301 ;;		Unchanged: 0/0
  7302 ;; Data sizes:     COMMON   BANK0   BANK1   BANK3   BANK2
  7303 ;;      Params:         4       0       0       0       0
  7304 ;;      Locals:         0       4       0       0       0
  7305 ;;      Temps:          0       0       0       0       0
  7306 ;;      Totals:         4       4       0       0       0
  7307 ;;Total ram usage:        8 bytes
  7308 ;; Hardware stack levels used: 1
  7309 ;; Hardware stack levels required when called: 1
  7310 ;; This function calls:
  7311 ;;		Nothing
  7312 ;; This function is called by:
  7313 ;;		_run_program
  7314 ;; This function uses a non-reentrant model
  7315 ;;
  7316                           
  7317     0805                     ___awdiv:	
  7318                           ;psect for function ___awdiv
  7319                           
  7320     0805                     l3872:	
  7321                           ;incstack = 0
  7322                           ; Regs used in ___awdiv: [wreg+status,2+status,0]
  7323                           
  7324     0805  1283               	bcf	3,5	;RP0=0, select bank0
  7325     0806  1303               	bcf	3,6	;RP1=0, select bank0
  7326     0807  01A1               	clrf	___awdiv@sign
  7327     0808                     l3874:
  7328     0808  1FF3               	btfss	___awdiv@divisor+1,7
  7329     0809  280B               	goto	u5381
  7330     080A  280C               	goto	u5380
  7331     080B                     u5381:
  7332     080B  2813               	goto	l3880
  7333     080C                     u5380:
  7334     080C                     l3876:
  7335     080C  09F2               	comf	___awdiv@divisor,f
  7336     080D  09F3               	comf	___awdiv@divisor+1,f
  7337     080E  0AF2               	incf	___awdiv@divisor,f
  7338     080F  1903               	skipnz
  7339     0810  0AF3               	incf	___awdiv@divisor+1,f
  7340     0811                     l3878:
  7341     0811  3001               	movlw	1
  7342     0812  00A1               	movwf	___awdiv@sign
  7343     0813                     l3880:
  7344     0813  1FF5               	btfss	___awdiv@dividend+1,7
  7345     0814  2816               	goto	u5391
  7346     0815  2817               	goto	u5390
  7347     0816                     u5391:
  7348     0816  281E               	goto	l3886
  7349     0817                     u5390:
  7350     0817                     l3882:
  7351     0817  09F4               	comf	___awdiv@dividend,f
  7352     0818  09F5               	comf	___awdiv@dividend+1,f
  7353     0819  0AF4               	incf	___awdiv@dividend,f
  7354     081A  1903               	skipnz
  7355     081B  0AF5               	incf	___awdiv@dividend+1,f
  7356     081C                     l3884:
  7357     081C  3001               	movlw	1
  7358     081D  06A1               	xorwf	___awdiv@sign,f
  7359     081E                     l3886:
  7360     081E  01A2               	clrf	___awdiv@quotient
  7361     081F  01A3               	clrf	___awdiv@quotient+1
  7362     0820                     l3888:
  7363     0820  0872               	movf	___awdiv@divisor,w
  7364     0821  0473               	iorwf	___awdiv@divisor+1,w
  7365     0822  1903               	btfsc	3,2
  7366     0823  2825               	goto	u5401
  7367     0824  2826               	goto	u5400
  7368     0825                     u5401:
  7369     0825  285B               	goto	l3908
  7370     0826                     u5400:
  7371     0826                     l3890:
  7372     0826  3001               	movlw	1
  7373     0827  00A0               	movwf	___awdiv@counter
  7374     0828  2832               	goto	l3896
  7375     0829                     l3892:
  7376     0829  3001               	movlw	1
  7377     082A                     u5415:
  7378     082A  1003               	clrc
  7379     082B  0DF2               	rlf	___awdiv@divisor,f
  7380     082C  0DF3               	rlf	___awdiv@divisor+1,f
  7381     082D  3EFF               	addlw	-1
  7382     082E  1D03               	skipz
  7383     082F  282A               	goto	u5415
  7384     0830                     l3894:
  7385     0830  3001               	movlw	1
  7386     0831  07A0               	addwf	___awdiv@counter,f
  7387     0832                     l3896:
  7388     0832  1FF3               	btfss	___awdiv@divisor+1,7
  7389     0833  2835               	goto	u5421
  7390     0834  2836               	goto	u5420
  7391     0835                     u5421:
  7392     0835  2829               	goto	l3892
  7393     0836                     u5420:
  7394     0836                     l3898:
  7395     0836  3001               	movlw	1
  7396     0837                     u5435:
  7397     0837  1003               	clrc
  7398     0838  0DA2               	rlf	___awdiv@quotient,f
  7399     0839  0DA3               	rlf	___awdiv@quotient+1,f
  7400     083A  3EFF               	addlw	-1
  7401     083B  1D03               	skipz
  7402     083C  2837               	goto	u5435
  7403     083D  0873               	movf	___awdiv@divisor+1,w
  7404     083E  0275               	subwf	___awdiv@dividend+1,w
  7405     083F  1D03               	skipz
  7406     0840  2843               	goto	u5445
  7407     0841  0872               	movf	___awdiv@divisor,w
  7408     0842  0274               	subwf	___awdiv@dividend,w
  7409     0843                     u5445:
  7410     0843  1C03               	skipc
  7411     0844  2846               	goto	u5441
  7412     0845  2847               	goto	u5440
  7413     0846                     u5441:
  7414     0846  284E               	goto	l3904
  7415     0847                     u5440:
  7416     0847                     l3900:
  7417     0847  0872               	movf	___awdiv@divisor,w
  7418     0848  02F4               	subwf	___awdiv@dividend,f
  7419     0849  0873               	movf	___awdiv@divisor+1,w
  7420     084A  1C03               	skipc
  7421     084B  03F5               	decf	___awdiv@dividend+1,f
  7422     084C  02F5               	subwf	___awdiv@dividend+1,f
  7423     084D                     l3902:
  7424     084D  1422               	bsf	___awdiv@quotient,0
  7425     084E                     l3904:
  7426     084E  3001               	movlw	1
  7427     084F                     u5455:
  7428     084F  1003               	clrc
  7429     0850  0CF3               	rrf	___awdiv@divisor+1,f
  7430     0851  0CF2               	rrf	___awdiv@divisor,f
  7431     0852  3EFF               	addlw	-1
  7432     0853  1D03               	skipz
  7433     0854  284F               	goto	u5455
  7434     0855                     l3906:
  7435     0855  3001               	movlw	1
  7436     0856  02A0               	subwf	___awdiv@counter,f
  7437     0857  1D03               	btfss	3,2
  7438     0858  285A               	goto	u5461
  7439     0859  285B               	goto	u5460
  7440     085A                     u5461:
  7441     085A  2836               	goto	l3898
  7442     085B                     u5460:
  7443     085B                     l3908:
  7444     085B  0821               	movf	___awdiv@sign,w
  7445     085C  1903               	btfsc	3,2
  7446     085D  285F               	goto	u5471
  7447     085E  2860               	goto	u5470
  7448     085F                     u5471:
  7449     085F  2865               	goto	l3912
  7450     0860                     u5470:
  7451     0860                     l3910:
  7452     0860  09A2               	comf	___awdiv@quotient,f
  7453     0861  09A3               	comf	___awdiv@quotient+1,f
  7454     0862  0AA2               	incf	___awdiv@quotient,f
  7455     0863  1903               	skipnz
  7456     0864  0AA3               	incf	___awdiv@quotient+1,f
  7457     0865                     l3912:
  7458     0865  0823               	movf	___awdiv@quotient+1,w
  7459     0866  00F3               	movwf	?___awdiv+1
  7460     0867  0822               	movf	___awdiv@quotient,w
  7461     0868  00F2               	movwf	?___awdiv
  7462     0869                     l565:
  7463     0869  0008               	return
  7464     086A                     __end_of___awdiv:
  7465                           
  7466                           	psect	text17
  7467     1728                     __ptext17:	
  7468 ;; *************** function _read_digital_keypad *****************
  7469 ;; Defined at:
  7470 ;;		line 14 in file "digitalkeypad.c"
  7471 ;; Parameters:    Size  Location     Type
  7472 ;;  mode            1    wreg     unsigned char 
  7473 ;; Auto vars:     Size  Location     Type
  7474 ;;  mode            1    3[COMMON] unsigned char 
  7475 ;; Return value:  Size  Location     Type
  7476 ;;                  1    wreg      unsigned char 
  7477 ;; Registers used:
  7478 ;;		wreg, status,2, status,0
  7479 ;; Tracked objects:
  7480 ;;		On entry : 0/0
  7481 ;;		On exit  : 0/0
  7482 ;;		Unchanged: 0/0
  7483 ;; Data sizes:     COMMON   BANK0   BANK1   BANK3   BANK2
  7484 ;;      Params:         0       0       0       0       0
  7485 ;;      Locals:         1       0       0       0       0
  7486 ;;      Temps:          1       0       0       0       0
  7487 ;;      Totals:         2       0       0       0       0
  7488 ;;Total ram usage:        2 bytes
  7489 ;; Hardware stack levels used: 1
  7490 ;; Hardware stack levels required when called: 1
  7491 ;; This function calls:
  7492 ;;		Nothing
  7493 ;; This function is called by:
  7494 ;;		_main
  7495 ;; This function uses a non-reentrant model
  7496 ;;
  7497                           
  7498     1728                     _read_digital_keypad:	
  7499                           ;psect for function _read_digital_keypad
  7500                           
  7501                           
  7502                           ;incstack = 0
  7503                           ; Regs used in _read_digital_keypad: [wreg+status,2+status,0]
  7504                           ;read_digital_keypad@mode stored from wreg
  7505     1728  00F3               	movwf	read_digital_keypad@mode
  7506     1729                     l3404:
  7507                           
  7508                           ;digitalkeypad.c: 14: unsigned char read_digital_keypad(unsigned char mode);digitalkeypa
      +                          d.c: 15: {;digitalkeypad.c: 16:     static unsigned int once=1;;digitalkeypad.c: 17:    
      +                           static unsigned char pre_key;;digitalkeypad.c: 18:     static unsigned char longpress;;
      +                          digitalkeypad.c: 19:     if(mode==0)
  7509     1729  0873               	movf	read_digital_keypad@mode,w
  7510     172A  1D03               	btfss	3,2
  7511     172B  2F2D               	goto	u4871
  7512     172C  2F2E               	goto	u4870
  7513     172D                     u4871:
  7514     172D  2F33               	goto	l3412
  7515     172E                     u4870:
  7516     172E                     l3406:
  7517                           
  7518                           ;digitalkeypad.c: 20:         return (PORTB & 0x3F);
  7519     172E  1283               	bcf	3,5	;RP0=0, select bank0
  7520     172F  1303               	bcf	3,6	;RP1=0, select bank0
  7521     1730  0806               	movf	6,w	;volatile
  7522     1731  393F               	andlw	63
  7523     1732  2F89               	goto	l291
  7524     1733                     l3412:
  7525                           
  7526                           ;digitalkeypad.c: 22:     {;digitalkeypad.c: 23:        if(((PORTB & 0x3F)!=0x3F)&& once
      +                          )
  7527     1733  303F               	movlw	63
  7528     1734  1283               	bcf	3,5	;RP0=0, select bank0
  7529     1735  1303               	bcf	3,6	;RP1=0, select bank0
  7530     1736  0506               	andwf	6,w	;volatile
  7531     1737  00F2               	movwf	??_read_digital_keypad
  7532     1738  303F               	movlw	63
  7533     1739  0672               	xorwf	??_read_digital_keypad,w
  7534     173A  1903               	btfsc	3,2
  7535     173B  2F3D               	goto	u4881
  7536     173C  2F3E               	goto	u4880
  7537     173D                     u4881:
  7538     173D  2F4C               	goto	l3422
  7539     173E                     u4880:
  7540     173E                     l3414:
  7541     173E  086D               	movf	read_digital_keypad@once,w
  7542     173F  046E               	iorwf	read_digital_keypad@once+1,w
  7543     1740  1903               	btfsc	3,2
  7544     1741  2F43               	goto	u4891
  7545     1742  2F44               	goto	u4890
  7546     1743                     u4891:
  7547     1743  2F4C               	goto	l3422
  7548     1744                     u4890:
  7549     1744                     l3416:
  7550                           
  7551                           ;digitalkeypad.c: 24:        {;digitalkeypad.c: 25:            once=0;
  7552     1744  01ED               	clrf	read_digital_keypad@once
  7553     1745  01EE               	clrf	read_digital_keypad@once+1
  7554                           
  7555                           ;digitalkeypad.c: 26:            longpress=0;
  7556     1746  01E8               	clrf	read_digital_keypad@longpress
  7557     1747                     l3418:
  7558                           
  7559                           ;digitalkeypad.c: 27:            pre_key=PORTB & 0x3F;
  7560     1747  0806               	movf	6,w	;volatile
  7561     1748  00F9               	movwf	read_digital_keypad@pre_key
  7562     1749                     l3420:
  7563     1749  303F               	movlw	63
  7564     174A  05F9               	andwf	read_digital_keypad@pre_key,f
  7565                           
  7566                           ;digitalkeypad.c: 28:        }
  7567     174B  2F88               	goto	l3450
  7568     174C                     l3422:
  7569     174C  086D               	movf	read_digital_keypad@once,w
  7570     174D  046E               	iorwf	read_digital_keypad@once+1,w
  7571     174E  1D03               	btfss	3,2
  7572     174F  2F51               	goto	u4901
  7573     1750  2F52               	goto	u4900
  7574     1751                     u4901:
  7575     1751  2F62               	goto	l3430
  7576     1752                     u4900:
  7577     1752                     l3424:
  7578     1752  0806               	movf	6,w	;volatile
  7579     1753  393F               	andlw	63
  7580     1754  0679               	xorwf	read_digital_keypad@pre_key,w
  7581     1755  1D03               	skipz
  7582     1756  2F58               	goto	u4911
  7583     1757  2F59               	goto	u4910
  7584     1758                     u4911:
  7585     1758  2F62               	goto	l3430
  7586     1759                     u4910:
  7587     1759                     l3426:
  7588     1759  3014               	movlw	20
  7589     175A  0268               	subwf	read_digital_keypad@longpress,w
  7590     175B  1803               	skipnc
  7591     175C  2F5E               	goto	u4921
  7592     175D  2F5F               	goto	u4920
  7593     175E                     u4921:
  7594     175E  2F62               	goto	l3430
  7595     175F                     u4920:
  7596     175F                     l3428:
  7597                           
  7598                           ;digitalkeypad.c: 30:        {;digitalkeypad.c: 31:            longpress++;
  7599     175F  3001               	movlw	1
  7600     1760  07E8               	addwf	read_digital_keypad@longpress,f
  7601                           
  7602                           ;digitalkeypad.c: 32:        }
  7603     1761  2F88               	goto	l3450
  7604     1762                     l3430:
  7605     1762  3014               	movlw	20
  7606     1763  0668               	xorwf	read_digital_keypad@longpress,w
  7607     1764  1D03               	btfss	3,2
  7608     1765  2F67               	goto	u4931
  7609     1766  2F68               	goto	u4930
  7610     1767                     u4931:
  7611     1767  2F6D               	goto	l3440
  7612     1768                     u4930:
  7613     1768                     l3432:
  7614                           
  7615                           ;digitalkeypad.c: 34:        {;digitalkeypad.c: 35:            longpress++;
  7616     1768  3001               	movlw	1
  7617     1769  07E8               	addwf	read_digital_keypad@longpress,f
  7618     176A                     l3434:
  7619                           
  7620                           ;digitalkeypad.c: 36:            return 0x80|pre_key;
  7621     176A  0879               	movf	read_digital_keypad@pre_key,w
  7622     176B  3880               	iorlw	128
  7623     176C  2F89               	goto	l291
  7624     176D                     l3440:
  7625     176D  303F               	movlw	63
  7626     176E  0506               	andwf	6,w	;volatile
  7627     176F  00F2               	movwf	??_read_digital_keypad
  7628     1770  303F               	movlw	63
  7629     1771  0672               	xorwf	??_read_digital_keypad,w
  7630     1772  1D03               	btfss	3,2
  7631     1773  2F75               	goto	u4941
  7632     1774  2F76               	goto	u4940
  7633     1775                     u4941:
  7634     1775  2F88               	goto	l3450
  7635     1776                     u4940:
  7636     1776                     l3442:
  7637     1776  086D               	movf	read_digital_keypad@once,w
  7638     1777  046E               	iorwf	read_digital_keypad@once+1,w
  7639     1778  1D03               	btfss	3,2
  7640     1779  2F7B               	goto	u4951
  7641     177A  2F7C               	goto	u4950
  7642     177B                     u4951:
  7643     177B  2F88               	goto	l3450
  7644     177C                     u4950:
  7645     177C                     l3444:
  7646                           
  7647                           ;digitalkeypad.c: 39:        {;digitalkeypad.c: 40:            once=1;
  7648     177C  3001               	movlw	1
  7649     177D  00ED               	movwf	read_digital_keypad@once
  7650     177E  3000               	movlw	0
  7651     177F  00EE               	movwf	read_digital_keypad@once+1
  7652                           
  7653                           ;digitalkeypad.c: 41:            if(longpress < 20)
  7654     1780  3014               	movlw	20
  7655     1781  0268               	subwf	read_digital_keypad@longpress,w
  7656     1782  1803               	skipnc
  7657     1783  2F85               	goto	u4961
  7658     1784  2F86               	goto	u4960
  7659     1785                     u4961:
  7660     1785  2F88               	goto	l296
  7661     1786                     u4960:
  7662     1786                     l3446:
  7663                           
  7664                           ;digitalkeypad.c: 42:            {;digitalkeypad.c: 43:                return pre_key;
  7665     1786  0879               	movf	read_digital_keypad@pre_key,w
  7666     1787  2F89               	goto	l291
  7667     1788                     l296:
  7668     1788                     l3450:
  7669                           
  7670                           ;digitalkeypad.c: 47:     return 0x3F;
  7671     1788  303F               	movlw	63
  7672     1789                     l291:
  7673     1789  0008               	return
  7674     178A                     __end_of_read_digital_keypad:
  7675                           
  7676                           	psect	text18
  7677     086A                     __ptext18:	
  7678 ;; *************** function _power_on_screen *****************
  7679 ;; Defined at:
  7680 ;;		line 131 in file "main.c"
  7681 ;; Parameters:    Size  Location     Type
  7682 ;;		None
  7683 ;; Auto vars:     Size  Location     Type
  7684 ;;  pos             1   10[BANK0 ] unsigned char 
  7685 ;;  i               1    9[BANK0 ] unsigned char 
  7686 ;;  i               1    8[BANK0 ] unsigned char 
  7687 ;; Return value:  Size  Location     Type
  7688 ;;                  1    wreg      void 
  7689 ;; Registers used:
  7690 ;;		wreg, fsr0l, fsr0h, status,2, status,0, btemp+1, pclath, cstack
  7691 ;; Tracked objects:
  7692 ;;		On entry : 0/0
  7693 ;;		On exit  : 0/0
  7694 ;;		Unchanged: 0/0
  7695 ;; Data sizes:     COMMON   BANK0   BANK1   BANK3   BANK2
  7696 ;;      Params:         0       0       0       0       0
  7697 ;;      Locals:         0       3       0       0       0
  7698 ;;      Temps:          0       3       0       0       0
  7699 ;;      Totals:         0       6       0       0       0
  7700 ;;Total ram usage:        6 bytes
  7701 ;; Hardware stack levels used: 1
  7702 ;; Hardware stack levels required when called: 3
  7703 ;; This function calls:
  7704 ;;		_clcd_print
  7705 ;;		_clcd_putch
  7706 ;; This function is called by:
  7707 ;;		_main
  7708 ;; This function uses a non-reentrant model
  7709 ;;
  7710                           
  7711     086A                     _power_on_screen:	
  7712                           ;psect for function _power_on_screen
  7713                           
  7714     086A                     l3928:	
  7715                           ;incstack = 0
  7716                           ; Regs used in _power_on_screen: [wreg-fsr0h+status,2+status,0+btemp+1+pclath+cstack]
  7717                           
  7718                           
  7719                           ;main.c: 134:     clcd_putch(0xFF, (0x80+pos));
  7720     086A  1283               	bcf	3,5	;RP0=0, select bank0
  7721     086B  1303               	bcf	3,6	;RP1=0, select bank0
  7722     086C  01A8               	clrf	power_on_screen@i
  7723     086D                     l3934:
  7724                           
  7725                           ;main.c: 135:     clcd_putch(0xFF, (0xD0+pos));;main.c: 136:     _delay((unsigned long)(
      +                          (100)*(20000000/4000.0)));
  7726     086D  0828               	movf	power_on_screen@i,w
  7727     086E  3E80               	addlw	128
  7728     086F  00F8               	movwf	clcd_putch@addr
  7729     0870  30FF               	movlw	255
  7730     0871  160A  118A  250D  120A  158A  	fcall	_clcd_putch
  7731     0876                     l3936:
  7732                           
  7733                           ;main.c: 137:     clcd_putch(' ', (0x80+pos));
  7734     0876  3001               	movlw	1
  7735     0877  1283               	bcf	3,5	;RP0=0, select bank0
  7736     0878  1303               	bcf	3,6	;RP1=0, select bank0
  7737     0879  07A8               	addwf	power_on_screen@i,f
  7738     087A                     l3938:
  7739     087A  3010               	movlw	16
  7740     087B  0228               	subwf	power_on_screen@i,w
  7741     087C  1C03               	skipc
  7742     087D  287F               	goto	u5481
  7743     087E  2880               	goto	u5480
  7744     087F                     u5481:
  7745     087F  286D               	goto	l3934
  7746     0880                     u5480:
  7747     0880                     l3940:
  7748                           
  7749                           ;main.c: 138:     clcd_putch(' ', (0xD0+pos));
  7750     0880  3023               	movlw	low (STR_24| (0+32768))
  7751     0881  00F6               	movwf	clcd_print@str
  7752     0882  3090               	movlw	high (STR_24| (0+32768))
  7753     0883  00F7               	movwf	clcd_print@str+1
  7754     0884  30C0               	movlw	192
  7755     0885  00F8               	movwf	clcd_print@addr
  7756     0886  160A  118A  25CB  120A  158A  	fcall	_clcd_print
  7757                           
  7758                           ;main.c: 139: }
  7759     088B  3000               	movlw	low (STR_25| (0+32768))
  7760     088C  00F6               	movwf	clcd_print@str
  7761     088D  3090               	movlw	high (STR_25| (0+32768))
  7762     088E  00F7               	movwf	clcd_print@str+1
  7763     088F  3090               	movlw	144
  7764     0890  00F8               	movwf	clcd_print@addr
  7765     0891  160A  118A  25CB  120A  158A  	fcall	_clcd_print
  7766     0896                     l3942:
  7767                           
  7768                           ;main.c: 140: _delay((unsigned long)((1000)*(20000000/4000.0)));
  7769     0896  1283               	bcf	3,5	;RP0=0, select bank0
  7770     0897  1303               	bcf	3,6	;RP1=0, select bank0
  7771     0898  01A9               	clrf	power_on_screen@i_188
  7772     0899                     l3948:
  7773                           
  7774                           ;main.c: 141: };main.c: 142: 
  7775     0899  0829               	movf	power_on_screen@i_188,w
  7776     089A  3ED0               	addlw	208
  7777     089B  00F8               	movwf	clcd_putch@addr
  7778     089C  30FF               	movlw	255
  7779     089D  160A  118A  250D  120A  158A  	fcall	_clcd_putch
  7780     08A2                     l3950:
  7781                           
  7782                           ;main.c: 143: void washing_program_display(unsigned char key)
  7783     08A2  3001               	movlw	1
  7784     08A3  1283               	bcf	3,5	;RP0=0, select bank0
  7785     08A4  1303               	bcf	3,6	;RP1=0, select bank0
  7786     08A5  07A9               	addwf	power_on_screen@i_188,f
  7787     08A6                     l3952:
  7788     08A6  3010               	movlw	16
  7789     08A7  0229               	subwf	power_on_screen@i_188,w
  7790     08A8  1C03               	skipc
  7791     08A9  28AB               	goto	u5491
  7792     08AA  28AC               	goto	u5490
  7793     08AB                     u5491:
  7794     08AB  2899               	goto	l3948
  7795     08AC                     u5490:
  7796     08AC                     l3954:
  7797                           
  7798                           ;main.c: 145:     if( reset_mode == 0x10)
  7799     08AC  01AA               	clrf	power_on_screen@pos
  7800     08AD                     l3960:
  7801                           
  7802                           ;main.c: 146:     {
  7803     08AD  082A               	movf	power_on_screen@pos,w
  7804     08AE  3E80               	addlw	128
  7805     08AF  00F8               	movwf	clcd_putch@addr
  7806     08B0  30FF               	movlw	255
  7807     08B1  160A  118A  250D  120A  158A  	fcall	_clcd_putch
  7808                           
  7809                           ;main.c: 147:         clear_screen();
  7810     08B6  1283               	bcf	3,5	;RP0=0, select bank0
  7811     08B7  1303               	bcf	3,6	;RP1=0, select bank0
  7812     08B8  082A               	movf	power_on_screen@pos,w
  7813     08B9  3ED0               	addlw	208
  7814     08BA  00F8               	movwf	clcd_putch@addr
  7815     08BB  30FF               	movlw	255
  7816     08BC  160A  118A  250D  120A  158A  	fcall	_clcd_putch
  7817     08C1                     l3962:
  7818                           
  7819                           ;main.c: 148:         program_no = 0;
  7820     08C1  3003               	movlw	3
  7821     08C2  1283               	bcf	3,5	;RP0=0, select bank0
  7822     08C3  1303               	bcf	3,6	;RP1=0, select bank0
  7823     08C4  00A7               	movwf	??_power_on_screen+2
  7824     08C5  308A               	movlw	138
  7825     08C6  00A6               	movwf	??_power_on_screen+1
  7826     08C7  3055               	movlw	85
  7827     08C8  00A5               	movwf	??_power_on_screen
  7828     08C9                     u5877:
  7829     08C9  0BA5               	decfsz	??_power_on_screen,f
  7830     08CA  28C9               	goto	u5877
  7831     08CB  0BA6               	decfsz	??_power_on_screen+1,f
  7832     08CC  28C9               	goto	u5877
  7833     08CD  0BA7               	decfsz	??_power_on_screen+2,f
  7834     08CE  28C9               	goto	u5877
  7835     08CF                     l3964:
  7836                           
  7837                           ;main.c: 149:     }
  7838     08CF  1283               	bcf	3,5	;RP0=0, select bank0
  7839     08D0  1303               	bcf	3,6	;RP1=0, select bank0
  7840     08D1  082A               	movf	power_on_screen@pos,w
  7841     08D2  3E80               	addlw	128
  7842     08D3  00F8               	movwf	clcd_putch@addr
  7843     08D4  3020               	movlw	32
  7844     08D5  160A  118A  250D  120A  158A  	fcall	_clcd_putch
  7845     08DA                     l3966:
  7846                           
  7847                           ;main.c: 150:     if (key == 0x37)
  7848     08DA  1283               	bcf	3,5	;RP0=0, select bank0
  7849     08DB  1303               	bcf	3,6	;RP1=0, select bank0
  7850     08DC  082A               	movf	power_on_screen@pos,w
  7851     08DD  3ED0               	addlw	208
  7852     08DE  00F8               	movwf	clcd_putch@addr
  7853     08DF  3020               	movlw	32
  7854     08E0  160A  118A  250D  120A  158A  	fcall	_clcd_putch
  7855     08E5                     l3968:
  7856                           
  7857                           ;main.c: 151:     {
  7858     08E5  3001               	movlw	1
  7859     08E6  1283               	bcf	3,5	;RP0=0, select bank0
  7860     08E7  1303               	bcf	3,6	;RP1=0, select bank0
  7861     08E8  07AA               	addwf	power_on_screen@pos,f
  7862     08E9                     l3970:
  7863     08E9  3010               	movlw	16
  7864     08EA  022A               	subwf	power_on_screen@pos,w
  7865     08EB  1C03               	skipc
  7866     08EC  28EE               	goto	u5501
  7867     08ED  28EF               	goto	u5500
  7868     08EE                     u5501:
  7869     08EE  28AD               	goto	l3960
  7870     08EF                     u5500:
  7871     08EF                     l3972:
  7872                           
  7873                           ;main.c: 152:        program_no++;
  7874     08EF  301A               	movlw	26
  7875     08F0  1283               	bcf	3,5	;RP0=0, select bank0
  7876     08F1  1303               	bcf	3,6	;RP1=0, select bank0
  7877     08F2  00A7               	movwf	??_power_on_screen+2
  7878     08F3  305E               	movlw	94
  7879     08F4  00A6               	movwf	??_power_on_screen+1
  7880     08F5  306D               	movlw	109
  7881     08F6  00A5               	movwf	??_power_on_screen
  7882     08F7                     u5887:
  7883     08F7  0BA5               	decfsz	??_power_on_screen,f
  7884     08F8  28F7               	goto	u5887
  7885     08F9  0BA6               	decfsz	??_power_on_screen+1,f
  7886     08FA  28F7               	goto	u5887
  7887     08FB  0BA7               	decfsz	??_power_on_screen+2,f
  7888     08FC  28F7               	goto	u5887
  7889     08FD  28FE               	nop2
  7890     08FE                     l164:
  7891     08FE  0008               	return
  7892     08FF                     __end_of_power_on_screen:
  7893                           
  7894                           	psect	text19
  7895     150D                     __ptext19:	
  7896 ;; *************** function _clcd_putch *****************
  7897 ;; Defined at:
  7898 ;;		line 40 in file "clcd.c"
  7899 ;; Parameters:    Size  Location     Type
  7900 ;;  data            1    wreg     const unsigned char 
  7901 ;;  addr            1    8[COMMON] unsigned char 
  7902 ;; Auto vars:     Size  Location     Type
  7903 ;;  data            1    4[BANK0 ] const unsigned char 
  7904 ;; Return value:  Size  Location     Type
  7905 ;;                  1    wreg      void 
  7906 ;; Registers used:
  7907 ;;		wreg, status,2, status,0, pclath, cstack
  7908 ;; Tracked objects:
  7909 ;;		On entry : 0/0
  7910 ;;		On exit  : 0/0
  7911 ;;		Unchanged: 0/0
  7912 ;; Data sizes:     COMMON   BANK0   BANK1   BANK3   BANK2
  7913 ;;      Params:         1       0       0       0       0
  7914 ;;      Locals:         0       1       0       0       0
  7915 ;;      Temps:          0       0       0       0       0
  7916 ;;      Totals:         1       1       0       0       0
  7917 ;;Total ram usage:        2 bytes
  7918 ;; Hardware stack levels used: 1
  7919 ;; Hardware stack levels required when called: 2
  7920 ;; This function calls:
  7921 ;;		_clcd_write
  7922 ;; This function is called by:
  7923 ;;		_power_on_screen
  7924 ;;		_washing_program_display
  7925 ;;		_water_level_display
  7926 ;;		_run_program
  7927 ;; This function uses a non-reentrant model
  7928 ;;
  7929                           
  7930     150D                     _clcd_putch:	
  7931                           ;psect for function _clcd_putch
  7932                           
  7933                           
  7934                           ;incstack = 0
  7935                           ; Regs used in _clcd_putch: [wreg+status,2+status,0+pclath+cstack]
  7936                           ;clcd_putch@data stored from wreg
  7937     150D  1283               	bcf	3,5	;RP0=0, select bank0
  7938     150E  1303               	bcf	3,6	;RP1=0, select bank0
  7939     150F  00A4               	movwf	clcd_putch@data
  7940     1510                     l3846:
  7941                           
  7942                           ;clcd.c: 40: void clcd_putch(const char data,unsigned char addr);clcd.c: 41: {;clcd.c: 4
      +                          2:     clcd_write(addr,0);
  7943     1510  01F2               	clrf	clcd_write@mode
  7944     1511  0878               	movf	clcd_putch@addr,w
  7945     1512  160A  118A  2538  160A  118A  	fcall	_clcd_write
  7946                           
  7947                           ;clcd.c: 43:     clcd_write(data,1);
  7948     1517  01F2               	clrf	clcd_write@mode
  7949     1518  0AF2               	incf	clcd_write@mode,f
  7950     1519  1283               	bcf	3,5	;RP0=0, select bank0
  7951     151A  1303               	bcf	3,6	;RP1=0, select bank0
  7952     151B  0824               	movf	clcd_putch@data,w
  7953     151C  160A  118A  2538  160A  118A  	fcall	_clcd_write
  7954     1521                     l28:
  7955     1521  0008               	return
  7956     1522                     __end_of_clcd_putch:
  7957                           
  7958                           	psect	text20
  7959     15CB                     __ptext20:	
  7960 ;; *************** function _clcd_print *****************
  7961 ;; Defined at:
  7962 ;;		line 45 in file "clcd.c"
  7963 ;; Parameters:    Size  Location     Type
  7964 ;;  str             2    6[COMMON] PTR const unsigned char 
  7965 ;;		 -> STR_47(14), STR_46(16), STR_45(5), STR_44(6), 
  7966 ;;		 -> STR_43(6), STR_42(6), STR_41(6), STR_40(6), 
  7967 ;;		 -> STR_39(5), STR_38(17), STR_37(5), STR_36(11), 
  7968 ;;		 -> STR_35(8), STR_34(6), STR_33(7), STR_32(17), 
  7969 ;;		 -> STR_31(5), STR_30(11), STR_29(13), STR_28(12), 
  7970 ;;		 -> STR_27(12), STR_26(16), STR_25(18), STR_24(17), 
  7971 ;;		 -> STR_23(12), STR_22(13), STR_21(13), STR_20(17), 
  7972 ;;		 -> STR_19(17), STR_18(16), STR_17(4), STR_16(5), 
  7973 ;;		 -> STR_15(7), STR_14(4), STR_13(5), STR_12(11), 
  7974 ;;		 -> STR_11(10), STR_10(9), STR_9(10), STR_8(10), 
  7975 ;;		 -> STR_7(9), STR_6(11), STR_5(11), STR_4(7), 
  7976 ;;		 -> STR_3(10), STR_2(6), STR_1(6), 
  7977 ;;  addr            1    8[COMMON] unsigned char 
  7978 ;; Auto vars:     Size  Location     Type
  7979 ;;		None
  7980 ;; Return value:  Size  Location     Type
  7981 ;;                  1    wreg      void 
  7982 ;; Registers used:
  7983 ;;		wreg, fsr0l, fsr0h, status,2, status,0, btemp+1, pclath, cstack
  7984 ;; Tracked objects:
  7985 ;;		On entry : 0/0
  7986 ;;		On exit  : 0/0
  7987 ;;		Unchanged: 0/0
  7988 ;; Data sizes:     COMMON   BANK0   BANK1   BANK3   BANK2
  7989 ;;      Params:         3       0       0       0       0
  7990 ;;      Locals:         0       0       0       0       0
  7991 ;;      Temps:          0       0       0       0       0
  7992 ;;      Totals:         3       0       0       0       0
  7993 ;;Total ram usage:        3 bytes
  7994 ;; Hardware stack levels used: 1
  7995 ;; Hardware stack levels required when called: 2
  7996 ;; This function calls:
  7997 ;;		_clcd_write
  7998 ;; This function is called by:
  7999 ;;		_main
  8000 ;;		_power_on_screen
  8001 ;;		_washing_program_display
  8002 ;;		_water_level_display
  8003 ;;		_door_status_check
  8004 ;;		_run_program
  8005 ;; This function uses a non-reentrant model
  8006 ;;
  8007                           
  8008     15CB                     _clcd_print:	
  8009                           ;psect for function _clcd_print
  8010                           
  8011     15CB                     l3826:	
  8012                           ;incstack = 0
  8013                           ; Regs used in _clcd_print: [wreg-fsr0h+status,2+status,0+btemp+1+pclath+cstack]
  8014                           
  8015                           
  8016                           ;clcd.c: 45: void clcd_print(const char*str,unsigned char addr);clcd.c: 46: {;clcd.c: 47
      +                          :     clcd_write(addr,0);
  8017     15CB  01F2               	clrf	clcd_write@mode
  8018     15CC  0878               	movf	clcd_print@addr,w
  8019     15CD  160A  118A  2538  160A  118A  	fcall	_clcd_write
  8020                           
  8021                           ;clcd.c: 48:     while(*str!='\0')
  8022     15D2  2DE9               	goto	l3832
  8023     15D3                     l3828:
  8024                           
  8025                           ;clcd.c: 49:     {;clcd.c: 50:         clcd_write(*str,1);
  8026     15D3  01F2               	clrf	clcd_write@mode
  8027     15D4  0AF2               	incf	clcd_write@mode,f
  8028     15D5  0877               	movf	clcd_print@str+1,w
  8029     15D6  00FF               	movwf	btemp+1
  8030     15D7  0876               	movf	clcd_print@str,w
  8031     15D8  0084               	movwf	4
  8032     15D9  160A  118A  2197  160A  118A  	fcall	stringtab
  8033     15DE  160A  118A  2538  160A  118A  	fcall	_clcd_write
  8034     15E3                     l3830:
  8035                           
  8036                           ;clcd.c: 51:         str++;
  8037     15E3  3001               	movlw	1
  8038     15E4  07F6               	addwf	clcd_print@str,f
  8039     15E5  1803               	skipnc
  8040     15E6  0AF7               	incf	clcd_print@str+1,f
  8041     15E7  3000               	movlw	0
  8042     15E8  07F7               	addwf	clcd_print@str+1,f
  8043     15E9                     l3832:
  8044                           
  8045                           ;clcd.c: 48:     while(*str!='\0')
  8046     15E9  0877               	movf	clcd_print@str+1,w
  8047     15EA  1283               	bcf	3,5	;RP0=0, select bank0
  8048     15EB  1303               	bcf	3,6	;RP1=0, select bank0
  8049     15EC  00FF               	movwf	btemp+1
  8050     15ED  0876               	movf	clcd_print@str,w
  8051     15EE  0084               	movwf	4
  8052     15EF  160A  118A  2197  160A  118A  	fcall	stringtab
  8053     15F4  3A00               	xorlw	0
  8054     15F5  1D03               	skipz
  8055     15F6  2DF8               	goto	u5351
  8056     15F7  2DF9               	goto	u5350
  8057     15F8                     u5351:
  8058     15F8  2DD3               	goto	l3828
  8059     15F9                     u5350:
  8060     15F9                     l34:
  8061     15F9  0008               	return
  8062     15FA                     __end_of_clcd_print:
  8063                           
  8064                           	psect	text21
  8065     1522                     __ptext21:	
  8066 ;; *************** function _init_config *****************
  8067 ;; Defined at:
  8068 ;;		line 21 in file "main.c"
  8069 ;; Parameters:    Size  Location     Type
  8070 ;;		None
  8071 ;; Auto vars:     Size  Location     Type
  8072 ;;		None
  8073 ;; Return value:  Size  Location     Type
  8074 ;;                  1    wreg      void 
  8075 ;; Registers used:
  8076 ;;		wreg, status,2, status,0, pclath, cstack
  8077 ;; Tracked objects:
  8078 ;;		On entry : 0/0
  8079 ;;		On exit  : 0/0
  8080 ;;		Unchanged: 0/0
  8081 ;; Data sizes:     COMMON   BANK0   BANK1   BANK3   BANK2
  8082 ;;      Params:         0       0       0       0       0
  8083 ;;      Locals:         0       0       0       0       0
  8084 ;;      Temps:          0       0       0       0       0
  8085 ;;      Totals:         0       0       0       0       0
  8086 ;;Total ram usage:        0 bytes
  8087 ;; Hardware stack levels used: 1
  8088 ;; Hardware stack levels required when called: 4
  8089 ;; This function calls:
  8090 ;;		_init_clcd
  8091 ;;		_init_digital_keypad
  8092 ;;		_init_timer2
  8093 ;; This function is called by:
  8094 ;;		_main
  8095 ;; This function uses a non-reentrant model
  8096 ;;
  8097                           
  8098     1522                     _init_config:	
  8099                           ;psect for function _init_config
  8100                           
  8101     1522                     l3916:	
  8102                           ;incstack = 0
  8103                           ; Regs used in _init_config: [wreg+status,2+status,0+pclath+cstack]
  8104                           
  8105                           
  8106                           ;main.c: 23: 
  8107     1522  160A  118A  24D5  160A  118A  	fcall	_init_clcd
  8108                           
  8109                           ;main.c: 26: }
  8110     1527  160A  118A  24CF  160A  118A  	fcall	_init_digital_keypad
  8111     152C                     l3918:
  8112                           
  8113                           ;main.c: 29:     unsigned char key =0x3F, key_copy;
  8114     152C  160A  118A  24E0  160A  118A  	fcall	_init_timer2
  8115     1531                     l3920:
  8116                           
  8117                           ;main.c: 32:     init_config();
  8118     1531  1683               	bsf	3,5	;RP0=1, select bank1
  8119     1532  1303               	bcf	3,6	;RP1=0, select bank1
  8120     1533  1107               	bcf	7,2	;volatile
  8121     1534                     l3922:
  8122                           
  8123                           ;main.c: 34:     clcd_print(" Press SW5 To  ", (0x80+0));
  8124     1534  1087               	bcf	7,1	;volatile
  8125     1535                     l3924:
  8126                           
  8127                           ;main.c: 36:     clcd_print(" Washing Machine", (0x90+0));
  8128     1535  170B               	bsf	11,6	;volatile
  8129     1536                     l3926:
  8130                           
  8131                           ;main.c: 37: 
  8132     1536  178B               	bsf	11,7	;volatile
  8133     1537                     l121:
  8134     1537  0008               	return
  8135     1538                     __end_of_init_config:
  8136                           
  8137                           	psect	text22
  8138     14E0                     __ptext22:	
  8139 ;; *************** function _init_timer2 *****************
  8140 ;; Defined at:
  8141 ;;		line 9 in file "timer.c"
  8142 ;; Parameters:    Size  Location     Type
  8143 ;;		None
  8144 ;; Auto vars:     Size  Location     Type
  8145 ;;		None
  8146 ;; Return value:  Size  Location     Type
  8147 ;;                  1    wreg      void 
  8148 ;; Registers used:
  8149 ;;		None
  8150 ;; Tracked objects:
  8151 ;;		On entry : 0/0
  8152 ;;		On exit  : 0/0
  8153 ;;		Unchanged: 0/0
  8154 ;; Data sizes:     COMMON   BANK0   BANK1   BANK3   BANK2
  8155 ;;      Params:         0       0       0       0       0
  8156 ;;      Locals:         0       0       0       0       0
  8157 ;;      Temps:          0       0       0       0       0
  8158 ;;      Totals:         0       0       0       0       0
  8159 ;;Total ram usage:        0 bytes
  8160 ;; Hardware stack levels used: 1
  8161 ;; Hardware stack levels required when called: 1
  8162 ;; This function calls:
  8163 ;;		Nothing
  8164 ;; This function is called by:
  8165 ;;		_init_config
  8166 ;; This function uses a non-reentrant model
  8167 ;;
  8168                           
  8169     14E0                     _init_timer2:	
  8170                           ;psect for function _init_timer2
  8171                           
  8172     14E0                     l3024:	
  8173                           ;incstack = 0
  8174                           ; Regs used in _init_timer2: []
  8175                           
  8176                           
  8177                           ;timer.c: 11:     T2CKPS0=1;
  8178     14E0  1283               	bcf	3,5	;RP0=0, select bank0
  8179     14E1  1303               	bcf	3,6	;RP1=0, select bank0
  8180     14E2  1412               	bsf	18,0	;volatile
  8181                           
  8182                           ;timer.c: 12:     T2CKPS1=1;
  8183     14E3  1492               	bsf	18,1	;volatile
  8184                           
  8185                           ;timer.c: 13:     PR2=250;
  8186     14E4  30FA               	movlw	250
  8187     14E5  1683               	bsf	3,5	;RP0=1, select bank1
  8188     14E6  1303               	bcf	3,6	;RP1=0, select bank1
  8189     14E7  0092               	movwf	18	;volatile
  8190                           
  8191                           ;timer.c: 14:     TMR2IE=1;
  8192     14E8  148C               	bsf	12,1	;volatile
  8193                           
  8194                           ;timer.c: 15:     TMR2ON=0;
  8195     14E9  1283               	bcf	3,5	;RP0=0, select bank0
  8196     14EA  1303               	bcf	3,6	;RP1=0, select bank0
  8197     14EB  1112               	bcf	18,2	;volatile
  8198     14EC                     l313:
  8199     14EC  0008               	return
  8200     14ED                     __end_of_init_timer2:
  8201                           
  8202                           	psect	text23
  8203     14CF                     __ptext23:	
  8204 ;; *************** function _init_digital_keypad *****************
  8205 ;; Defined at:
  8206 ;;		line 10 in file "digitalkeypad.c"
  8207 ;; Parameters:    Size  Location     Type
  8208 ;;		None
  8209 ;; Auto vars:     Size  Location     Type
  8210 ;;		None
  8211 ;; Return value:  Size  Location     Type
  8212 ;;                  1    wreg      void 
  8213 ;; Registers used:
  8214 ;;		wreg, status,2
  8215 ;; Tracked objects:
  8216 ;;		On entry : 0/0
  8217 ;;		On exit  : 0/0
  8218 ;;		Unchanged: 0/0
  8219 ;; Data sizes:     COMMON   BANK0   BANK1   BANK3   BANK2
  8220 ;;      Params:         0       0       0       0       0
  8221 ;;      Locals:         0       0       0       0       0
  8222 ;;      Temps:          0       0       0       0       0
  8223 ;;      Totals:         0       0       0       0       0
  8224 ;;Total ram usage:        0 bytes
  8225 ;; Hardware stack levels used: 1
  8226 ;; Hardware stack levels required when called: 1
  8227 ;; This function calls:
  8228 ;;		Nothing
  8229 ;; This function is called by:
  8230 ;;		_init_config
  8231 ;; This function uses a non-reentrant model
  8232 ;;
  8233                           
  8234     14CF                     _init_digital_keypad:	
  8235                           ;psect for function _init_digital_keypad
  8236                           
  8237     14CF                     l3022:	
  8238                           ;incstack = 0
  8239                           ; Regs used in _init_digital_keypad: [wreg+status,2]
  8240                           
  8241                           
  8242                           ;digitalkeypad.c: 12: TRISB=TRISB|0x3F;
  8243     14CF  1683               	bsf	3,5	;RP0=1, select bank1
  8244     14D0  1303               	bcf	3,6	;RP1=0, select bank1
  8245     14D1  0806               	movf	6,w	;volatile
  8246     14D2  383F               	iorlw	63
  8247     14D3  0086               	movwf	6	;volatile
  8248     14D4                     l281:
  8249     14D4  0008               	return
  8250     14D5                     __end_of_init_digital_keypad:
  8251                           
  8252                           	psect	text24
  8253     14D5                     __ptext24:	
  8254 ;; *************** function _init_clcd *****************
  8255 ;; Defined at:
  8256 ;;		line 24 in file "clcd.c"
  8257 ;; Parameters:    Size  Location     Type
  8258 ;;		None
  8259 ;; Auto vars:     Size  Location     Type
  8260 ;;		None
  8261 ;; Return value:  Size  Location     Type
  8262 ;;                  1    wreg      void 
  8263 ;; Registers used:
  8264 ;;		wreg, status,2, status,0, pclath, cstack
  8265 ;; Tracked objects:
  8266 ;;		On entry : 0/0
  8267 ;;		On exit  : 0/0
  8268 ;;		Unchanged: 0/0
  8269 ;; Data sizes:     COMMON   BANK0   BANK1   BANK3   BANK2
  8270 ;;      Params:         0       0       0       0       0
  8271 ;;      Locals:         0       0       0       0       0
  8272 ;;      Temps:          0       0       0       0       0
  8273 ;;      Totals:         0       0       0       0       0
  8274 ;;Total ram usage:        0 bytes
  8275 ;; Hardware stack levels used: 1
  8276 ;; Hardware stack levels required when called: 3
  8277 ;; This function calls:
  8278 ;;		_init_display_controller
  8279 ;; This function is called by:
  8280 ;;		_init_config
  8281 ;; This function uses a non-reentrant model
  8282 ;;
  8283                           
  8284     14D5                     _init_clcd:	
  8285                           ;psect for function _init_clcd
  8286                           
  8287     14D5                     l3838:	
  8288                           ;incstack = 0
  8289                           ; Regs used in _init_clcd: [wreg+status,2+status,0+pclath+cstack]
  8290                           
  8291                           
  8292                           ;clcd.c: 26:     TRISD=0x00;
  8293     14D5  1683               	bsf	3,5	;RP0=1, select bank1
  8294     14D6  1303               	bcf	3,6	;RP1=0, select bank1
  8295     14D7  0188               	clrf	8	;volatile
  8296     14D8                     l3840:
  8297                           
  8298                           ;clcd.c: 27:     TRISE2=0;
  8299     14D8  1109               	bcf	9,2	;volatile
  8300     14D9                     l3842:
  8301                           
  8302                           ;clcd.c: 28:     TRISE1=0;
  8303     14D9  1089               	bcf	9,1	;volatile
  8304     14DA                     l3844:
  8305                           
  8306                           ;clcd.c: 29:     init_display_controller();
  8307     14DA  160A  118A  2634  160A  118A  	fcall	_init_display_controller
  8308     14DF                     l22:
  8309     14DF  0008               	return
  8310     14E0                     __end_of_init_clcd:
  8311                           
  8312                           	psect	text25
  8313     1634                     __ptext25:	
  8314 ;; *************** function _init_display_controller *****************
  8315 ;; Defined at:
  8316 ;;		line 10 in file "clcd.c"
  8317 ;; Parameters:    Size  Location     Type
  8318 ;;		None
  8319 ;; Auto vars:     Size  Location     Type
  8320 ;;		None
  8321 ;; Return value:  Size  Location     Type
  8322 ;;                  1    wreg      void 
  8323 ;; Registers used:
  8324 ;;		wreg, status,2, status,0, pclath, cstack
  8325 ;; Tracked objects:
  8326 ;;		On entry : 0/0
  8327 ;;		On exit  : 0/0
  8328 ;;		Unchanged: 0/0
  8329 ;; Data sizes:     COMMON   BANK0   BANK1   BANK3   BANK2
  8330 ;;      Params:         0       0       0       0       0
  8331 ;;      Locals:         0       0       0       0       0
  8332 ;;      Temps:          2       0       0       0       0
  8333 ;;      Totals:         2       0       0       0       0
  8334 ;;Total ram usage:        2 bytes
  8335 ;; Hardware stack levels used: 1
  8336 ;; Hardware stack levels required when called: 2
  8337 ;; This function calls:
  8338 ;;		_clcd_write
  8339 ;; This function is called by:
  8340 ;;		_init_clcd
  8341 ;; This function uses a non-reentrant model
  8342 ;;
  8343                           
  8344     1634                     _init_display_controller:	
  8345                           ;psect for function _init_display_controller
  8346                           
  8347     1634                     l3808:	
  8348                           ;incstack = 0
  8349                           ; Regs used in _init_display_controller: [wreg+status,2+status,0+pclath+cstack]
  8350                           
  8351                           
  8352                           ;clcd.c: 12:     _delay((unsigned long)((30)*(20000000/4000.0)));
  8353     1634  30C3               	movlw	195
  8354     1635  00F7               	movwf	??_init_display_controller+1
  8355     1636  30CD               	movlw	205
  8356     1637  00F6               	movwf	??_init_display_controller
  8357     1638                     u5897:
  8358     1638  0BF6               	decfsz	??_init_display_controller,f
  8359     1639  2E38               	goto	u5897
  8360     163A  0BF7               	decfsz	??_init_display_controller+1,f
  8361     163B  2E38               	goto	u5897
  8362     163C                     l3810:
  8363                           
  8364                           ;clcd.c: 13:     clcd_write(0x33,0);
  8365     163C  01F2               	clrf	clcd_write@mode
  8366     163D  3033               	movlw	51
  8367     163E  160A  118A  2538  160A  118A  	fcall	_clcd_write
  8368     1643                     l3812:
  8369                           
  8370                           ;clcd.c: 14:     _delay((unsigned long)((4100)*(20000000/4000000.0)));
  8371     1643  301B               	movlw	27
  8372     1644  00F7               	movwf	??_init_display_controller+1
  8373     1645  309E               	movlw	158
  8374     1646  00F6               	movwf	??_init_display_controller
  8375     1647                     u5907:
  8376     1647  0BF6               	decfsz	??_init_display_controller,f
  8377     1648  2E47               	goto	u5907
  8378     1649  0BF7               	decfsz	??_init_display_controller+1,f
  8379     164A  2E47               	goto	u5907
  8380     164B  0000               	nop
  8381                           
  8382                           ;clcd.c: 15:     clcd_write(0x33,0);
  8383     164C  01F2               	clrf	clcd_write@mode
  8384     164D  3033               	movlw	51
  8385     164E  160A  118A  2538  160A  118A  	fcall	_clcd_write
  8386     1653                     l3814:
  8387                           
  8388                           ;clcd.c: 16:     _delay((unsigned long)((100)*(20000000/4000000.0)));
  8389     1653  30A6               	movlw	166
  8390     1654  00F6               	movwf	??_init_display_controller
  8391     1655                     u5917:
  8392     1655  0BF6               	decfsz	??_init_display_controller,f
  8393     1656  2E55               	goto	u5917
  8394     1657  0000               	nop
  8395     1658                     l3816:
  8396                           
  8397                           ;clcd.c: 17:     clcd_write(0x33,0);
  8398     1658  01F2               	clrf	clcd_write@mode
  8399     1659  3033               	movlw	51
  8400     165A  160A  118A  2538  160A  118A  	fcall	_clcd_write
  8401     165F                     l3818:
  8402                           
  8403                           ;clcd.c: 18:     _delay((unsigned long)((1)*(20000000/4000000.0)));
  8404     165F  2E60               	nop2	;2 cycle nop
  8405     1660  2E61               	nop2	;2 cycle nop
  8406     1661  0000               	nop
  8407     1662                     l3820:
  8408                           
  8409                           ;clcd.c: 19:     clcd_write(0x01,0);
  8410     1662  01F2               	clrf	clcd_write@mode
  8411     1663  3001               	movlw	1
  8412     1664  160A  118A  2538  160A  118A  	fcall	_clcd_write
  8413     1669                     l3822:
  8414                           
  8415                           ;clcd.c: 20:     _delay((unsigned long)((100)*(20000000/4000000.0)));
  8416     1669  30A6               	movlw	166
  8417     166A  00F6               	movwf	??_init_display_controller
  8418     166B                     u5927:
  8419     166B  0BF6               	decfsz	??_init_display_controller,f
  8420     166C  2E6B               	goto	u5927
  8421     166D  0000               	nop
  8422                           
  8423                           ;clcd.c: 21:     clcd_write(0x0C,0);
  8424     166E  01F2               	clrf	clcd_write@mode
  8425     166F  300C               	movlw	12
  8426     1670  160A  118A  2538  160A  118A  	fcall	_clcd_write
  8427     1675                     l3824:
  8428                           
  8429                           ;clcd.c: 22:     _delay((unsigned long)((100)*(20000000/4000000.0)));
  8430     1675  30A6               	movlw	166
  8431     1676  00F6               	movwf	??_init_display_controller
  8432     1677                     u5937:
  8433     1677  0BF6               	decfsz	??_init_display_controller,f
  8434     1678  2E77               	goto	u5937
  8435     1679  0000               	nop
  8436     167A                     l19:
  8437     167A  0008               	return
  8438     167B                     __end_of_init_display_controller:
  8439                           
  8440                           	psect	text26
  8441     1538                     __ptext26:	
  8442 ;; *************** function _clcd_write *****************
  8443 ;; Defined at:
  8444 ;;		line 31 in file "clcd.c"
  8445 ;; Parameters:    Size  Location     Type
  8446 ;;  byte            1    wreg     unsigned char 
  8447 ;;  mode            1    2[COMMON] unsigned char 
  8448 ;; Auto vars:     Size  Location     Type
  8449 ;;  byte            1    5[COMMON] unsigned char 
  8450 ;; Return value:  Size  Location     Type
  8451 ;;                  1    wreg      void 
  8452 ;; Registers used:
  8453 ;;		wreg, status,2, status,0
  8454 ;; Tracked objects:
  8455 ;;		On entry : 0/0
  8456 ;;		On exit  : 0/0
  8457 ;;		Unchanged: 0/0
  8458 ;; Data sizes:     COMMON   BANK0   BANK1   BANK3   BANK2
  8459 ;;      Params:         1       0       0       0       0
  8460 ;;      Locals:         1       0       0       0       0
  8461 ;;      Temps:          2       0       0       0       0
  8462 ;;      Totals:         4       0       0       0       0
  8463 ;;Total ram usage:        4 bytes
  8464 ;; Hardware stack levels used: 1
  8465 ;; Hardware stack levels required when called: 1
  8466 ;; This function calls:
  8467 ;;		Nothing
  8468 ;; This function is called by:
  8469 ;;		_init_display_controller
  8470 ;;		_clcd_putch
  8471 ;;		_clcd_print
  8472 ;;		_clear_screen
  8473 ;; This function uses a non-reentrant model
  8474 ;;
  8475                           
  8476     1538                     _clcd_write:	
  8477                           ;psect for function _clcd_write
  8478                           
  8479                           
  8480                           ;incstack = 0
  8481                           ; Regs used in _clcd_write: [wreg+status,2+status,0]
  8482                           ;clcd_write@byte stored from wreg
  8483     1538  00F5               	movwf	clcd_write@byte
  8484     1539                     l3796:
  8485                           
  8486                           ;clcd.c: 31: void clcd_write(unsigned char byte,unsigned char mode);clcd.c: 32: {;clcd.c
      +                          : 33:     RE2 = (mode != 0);
  8487     1539  0872               	movf	clcd_write@mode,w
  8488     153A  1D03               	btfss	3,2
  8489     153B  2D3D               	goto	u5331
  8490     153C  2D41               	goto	u5330
  8491     153D                     u5331:
  8492     153D  1283               	bcf	3,5	;RP0=0, select bank0
  8493     153E  1303               	bcf	3,6	;RP1=0, select bank0
  8494     153F  1509               	bsf	9,2	;volatile
  8495     1540  2D44               	goto	u5344
  8496     1541                     u5330:
  8497     1541  1283               	bcf	3,5	;RP0=0, select bank0
  8498     1542  1303               	bcf	3,6	;RP1=0, select bank0
  8499     1543  1109               	bcf	9,2	;volatile
  8500     1544                     u5344:
  8501     1544                     l3798:
  8502                           
  8503                           ;clcd.c: 34:     PORTD = byte;
  8504     1544  0875               	movf	clcd_write@byte,w
  8505     1545  0088               	movwf	8	;volatile
  8506     1546                     l3800:
  8507                           
  8508                           ;clcd.c: 35:     RE1=1;
  8509     1546  1489               	bsf	9,1	;volatile
  8510     1547                     l3802:
  8511                           
  8512                           ;clcd.c: 36:     _delay((unsigned long)((100)*(20000000/4000000.0)));
  8513     1547  30A6               	movlw	166
  8514     1548  00F3               	movwf	??_clcd_write
  8515     1549                     u5947:
  8516     1549  0BF3               	decfsz	??_clcd_write,f
  8517     154A  2D49               	goto	u5947
  8518     154B  0000               	nop
  8519     154C                     l3804:
  8520                           
  8521                           ;clcd.c: 37:     RE1=0;
  8522     154C  1283               	bcf	3,5	;RP0=0, select bank0
  8523     154D  1303               	bcf	3,6	;RP1=0, select bank0
  8524     154E  1089               	bcf	9,1	;volatile
  8525     154F                     l3806:
  8526                           
  8527                           ;clcd.c: 38:     _delay((unsigned long)((4100)*(20000000/4000000.0)));
  8528     154F  301B               	movlw	27
  8529     1550  00F4               	movwf	??_clcd_write+1
  8530     1551  309E               	movlw	158
  8531     1552  00F3               	movwf	??_clcd_write
  8532     1553                     u5957:
  8533     1553  0BF3               	decfsz	??_clcd_write,f
  8534     1554  2D53               	goto	u5957
  8535     1555  0BF4               	decfsz	??_clcd_write+1,f
  8536     1556  2D53               	goto	u5957
  8537     1557  0000               	nop
  8538     1558                     l25:
  8539     1558  0008               	return
  8540     1559                     __end_of_clcd_write:
  8541                           
  8542                           	psect	text27
  8543     15FA                     __ptext27:	
  8544 ;; *************** function _isr *****************
  8545 ;; Defined at:
  8546 ;;		line 10 in file "isr.c"
  8547 ;; Parameters:    Size  Location     Type
  8548 ;;		None
  8549 ;; Auto vars:     Size  Location     Type
  8550 ;;		None
  8551 ;; Return value:  Size  Location     Type
  8552 ;;                  1    wreg      void 
  8553 ;; Registers used:
  8554 ;;		wreg, status,2, status,0
  8555 ;; Tracked objects:
  8556 ;;		On entry : 0/0
  8557 ;;		On exit  : 0/0
  8558 ;;		Unchanged: 0/0
  8559 ;; Data sizes:     COMMON   BANK0   BANK1   BANK3   BANK2
  8560 ;;      Params:         0       0       0       0       0
  8561 ;;      Locals:         0       0       0       0       0
  8562 ;;      Temps:          2       0       0       0       0
  8563 ;;      Totals:         2       0       0       0       0
  8564 ;;Total ram usage:        2 bytes
  8565 ;; Hardware stack levels used: 1
  8566 ;; This function calls:
  8567 ;;		Nothing
  8568 ;; This function is called by:
  8569 ;;		Interrupt level 1
  8570 ;; This function uses a non-reentrant model
  8571 ;;
  8572                           
  8573     15FA                     _isr:	
  8574                           ;psect for function _isr
  8575                           
  8576     15FA                     i1l2662:
  8577                           
  8578                           ;isr.c: 13:     static unsigned int count=0;;isr.c: 14:     if(TMR2IF==1)
  8579     15FA  1283               	bcf	3,5	;RP0=0, select bank0
  8580     15FB  1303               	bcf	3,6	;RP1=0, select bank0
  8581     15FC  1C8C               	btfss	12,1	;volatile
  8582     15FD  2DFF               	goto	u326_21
  8583     15FE  2E00               	goto	u326_20
  8584     15FF                     u326_21:
  8585     15FF  2E2D               	goto	i1l52
  8586     1600                     u326_20:
  8587     1600                     i1l2664:
  8588                           
  8589                           ;isr.c: 15:     {;isr.c: 16:         if(++count==1250)
  8590     1600  3001               	movlw	1
  8591     1601  1683               	bsf	3,5	;RP0=1, select bank1
  8592     1602  1303               	bcf	3,6	;RP1=0, select bank1
  8593     1603  07C9               	addwf	isr@count^(0+128),f
  8594     1604  1803               	skipnc
  8595     1605  0ACA               	incf	(isr@count+1)^(0+128),f
  8596     1606  3000               	movlw	0
  8597     1607  07CA               	addwf	(isr@count+1)^(0+128),f
  8598     1608  30E2               	movlw	226
  8599     1609  0649               	xorwf	isr@count^(0+128),w
  8600     160A  3004               	movlw	4
  8601     160B  1903               	skipnz
  8602     160C  064A               	xorwf	(isr@count+1)^(0+128),w
  8603     160D  1D03               	btfss	3,2
  8604     160E  2E10               	goto	u327_21
  8605     160F  2E11               	goto	u327_20
  8606     1610                     u327_21:
  8607     1610  2E2B               	goto	i1l2680
  8608     1611                     u327_20:
  8609     1611                     i1l2666:
  8610                           
  8611                           ;isr.c: 17:         {;isr.c: 18:             count=0;
  8612     1611  01C9               	clrf	isr@count^(0+128)
  8613     1612  01CA               	clrf	(isr@count+1)^(0+128)
  8614     1613                     i1l2668:
  8615                           
  8616                           ;isr.c: 19:             if(sec>0)
  8617     1613  1283               	bcf	3,5	;RP0=0, select bank0
  8618     1614  1303               	bcf	3,6	;RP1=0, select bank0
  8619     1615  086A               	movf	_sec,w
  8620     1616  1903               	btfsc	3,2
  8621     1617  2E19               	goto	u328_21
  8622     1618  2E1A               	goto	u328_20
  8623     1619                     u328_21:
  8624     1619  2E1D               	goto	i1l2672
  8625     161A                     u328_20:
  8626     161A                     i1l2670:
  8627                           
  8628                           ;isr.c: 20:                 sec--;
  8629     161A  3001               	movlw	1
  8630     161B  02EA               	subwf	_sec,f
  8631     161C  2E2B               	goto	i1l2680
  8632     161D                     i1l2672:
  8633     161D  086A               	movf	_sec,w
  8634     161E  1D03               	btfss	3,2
  8635     161F  2E21               	goto	u329_21
  8636     1620  2E22               	goto	u329_20
  8637     1621                     u329_21:
  8638     1621  2E2B               	goto	i1l2680
  8639     1622                     u329_20:
  8640     1622                     i1l2674:
  8641     1622  0869               	movf	_min,w
  8642     1623  1903               	btfsc	3,2
  8643     1624  2E26               	goto	u330_21
  8644     1625  2E27               	goto	u330_20
  8645     1626                     u330_21:
  8646     1626  2E2B               	goto	i1l2680
  8647     1627                     u330_20:
  8648     1627                     i1l2676:
  8649                           
  8650                           ;isr.c: 22:             {;isr.c: 23:                 min--;
  8651     1627  3001               	movlw	1
  8652     1628  02E9               	subwf	_min,f
  8653     1629                     i1l2678:
  8654                           
  8655                           ;isr.c: 24:                 sec=59;
  8656     1629  303B               	movlw	59
  8657     162A  00EA               	movwf	_sec
  8658     162B                     i1l2680:
  8659                           
  8660                           ;isr.c: 27:         TMR2IF=0;
  8661     162B  1283               	bcf	3,5	;RP0=0, select bank0
  8662     162C  108C               	bcf	12,1	;volatile
  8663     162D                     i1l52:
  8664     162D  0871               	movf	??_isr+1,w
  8665     162E  008A               	movwf	10
  8666     162F  0E70               	swapf	??_isr,w
  8667     1630  0083               	movwf	3
  8668     1631  0EFE               	swapf	btemp,f
  8669     1632  0E7E               	swapf	btemp,w
  8670     1633  0009               	retfie
  8671     1634                     __end_of_isr:
  8672     0002                     ___latbits      equ	2
  8673     007E                     btemp           set	126	;btemp
  8674     007E                     wtemp0          set	126
  8675                           
  8676                           	psect	intentry
  8677     0004                     __pintentry:	
  8678                           ;incstack = 0
  8679                           ; Regs used in _isr: [wreg+status,2+status,0]
  8680                           
  8681     0004                     interrupt_function:
  8682     007E                     saved_w         set	btemp
  8683     0004  00FE               	movwf	btemp
  8684     0005  0E03               	swapf	3,w
  8685     0006  00F0               	movwf	??_isr
  8686     0007  080A               	movf	10,w
  8687     0008  00F1               	movwf	??_isr+1
  8688     0009  160A  118A  2DFA   	ljmp	_isr
  8689                           
  8690                           	psect	config
  8691                           
  8692                           ;Config register CONFIG @ 0x2007
  8693                           ;	Oscillator Selection bits
  8694                           ;	FOSC = 0x3, unprogrammed default
  8695                           ;	Watchdog Timer Enable bit
  8696                           ;	WDTE = OFF, WDT disabled
  8697                           ;	Power-up Timer Enable bit
  8698                           ;	PWRTE = 0x1, unprogrammed default
  8699                           ;	Brown-out Reset Enable bit
  8700                           ;	BOREN = 0x1, unprogrammed default
  8701                           ;	Low-Voltage (Single-Supply) In-Circuit Serial Programming Enable bit
  8702                           ;	LVP = 0x1, unprogrammed default
  8703                           ;	Data EEPROM Memory Code Protection bit
  8704                           ;	CPD = 0x1, unprogrammed default
  8705                           ;	Flash Program Memory Write Enable bits
  8706                           ;	WRT = 0x3, unprogrammed default
  8707                           ;	In-Circuit Debugger Mode bit
  8708                           ;	DEBUG = 0x1, unprogrammed default
  8709                           ;	Flash Program Memory Code Protection bit
  8710                           ;	CP = 0x1, unprogrammed default
  8711     2007                     	org	8199
  8712     2007  3FFB               	dw	16379

Data Sizes:
    Strings     407
    Constant    0
    Data        36
    BSS         18
    Persistent  2
    Stack       0

Auto Spaces:
    Space          Size  Autos    Used
    COMMON           14      9      12
    BANK0            80     64      79
    BANK1            80      5      43
    BANK3            96      0       0
    BANK2            96      0       0

Pointer List with Targets:

    clcd_print@str	PTR const unsigned char  size(2) Largest target is 18
		 -> STR_1(CODE[6]), STR_10(CODE[9]), STR_11(CODE[10]), STR_12(CODE[11]), 
		 -> STR_13(CODE[5]), STR_14(CODE[4]), STR_15(CODE[7]), STR_16(CODE[5]), 
		 -> STR_17(CODE[4]), STR_18(CODE[16]), STR_19(CODE[17]), STR_2(CODE[6]), 
		 -> STR_20(CODE[17]), STR_21(CODE[13]), STR_22(CODE[13]), STR_23(CODE[12]), 
		 -> STR_24(CODE[17]), STR_25(CODE[18]), STR_26(CODE[16]), STR_27(CODE[12]), 
		 -> STR_28(CODE[12]), STR_29(CODE[13]), STR_3(CODE[10]), STR_30(CODE[11]), 
		 -> STR_31(CODE[5]), STR_32(CODE[17]), STR_33(CODE[7]), STR_34(CODE[6]), 
		 -> STR_35(CODE[8]), STR_36(CODE[11]), STR_37(CODE[5]), STR_38(CODE[17]), 
		 -> STR_39(CODE[5]), STR_4(CODE[7]), STR_40(CODE[6]), STR_41(CODE[6]), 
		 -> STR_42(CODE[6]), STR_43(CODE[6]), STR_44(CODE[6]), STR_45(CODE[5]), 
		 -> STR_46(CODE[16]), STR_47(CODE[14]), STR_5(CODE[11]), STR_6(CODE[11]), 
		 -> STR_7(CODE[9]), STR_8(CODE[10]), STR_9(CODE[10]), 

    washing_prog	PTR unsigned char [12] size(2) Largest target is 11
		 -> STR_1(CODE[6]), STR_10(CODE[9]), STR_11(CODE[10]), STR_12(CODE[11]), 
		 -> STR_2(CODE[6]), STR_3(CODE[10]), STR_4(CODE[7]), STR_5(CODE[11]), 
		 -> STR_6(CODE[11]), STR_7(CODE[9]), STR_8(CODE[10]), STR_9(CODE[10]), 

    water_level_arr	PTR unsigned char [5] size(2) Largest target is 7
		 -> STR_13(CODE[5]), STR_14(CODE[4]), STR_15(CODE[7]), STR_16(CODE[5]), 
		 -> STR_17(CODE[4]), 


Critical Paths under _main in COMMON

    _main->_clcd_print
    _water_level_display->_clcd_print
    _water_level_display->_clcd_putch
    _washing_program_display->_clcd_print
    _washing_program_display->_clcd_putch
    _run_program->_clcd_print
    _run_program->_clcd_putch
    _door_status_check->_clcd_print
    _clear_screen->_clcd_write
    ___fltol->___xxtofl
    ___flsub->___fladd
    ___flsub->___xxtofl
    ___flmul->__Umul8_16
    ___flmul->___xxtofl
    ___flge->___xxtofl
    _power_on_screen->_clcd_print
    _power_on_screen->_clcd_putch
    _clcd_putch->___awmod
    _clcd_print->_clcd_write
    _init_clcd->_init_display_controller
    _init_display_controller->_clcd_write

Critical Paths under _isr in COMMON

    None.

Critical Paths under _main in BANK0

    _main->_run_program
    _water_level_display->_clcd_putch
    _washing_program_display->_clcd_putch
    _run_program->___flge
    ___fltol->___flmul
    ___flsub->___flmul
    ___flmul->___xxtofl
    ___flge->___flsub
    _power_on_screen->_clcd_putch
    _clcd_putch->___awdiv

Critical Paths under _isr in BANK0

    None.

Critical Paths under _main in BANK1

    None.

Critical Paths under _isr in BANK1

    None.

Critical Paths under _main in BANK3

    None.

Critical Paths under _isr in BANK3

    None.

Critical Paths under _main in BANK2

    None.

Critical Paths under _isr in BANK2

    None.

Call Graph Tables:

 ---------------------------------------------------------------------------------
 (Depth) Function   	        Calls       Base Space   Used Autos Params    Refs
 ---------------------------------------------------------------------------------
 (0) _main                                                 6     6      0   15898
                                              0 BANK1      5     5      0
                         _clcd_print
                       _clear_screen
                        _init_config
                    _power_on_screen
                _read_digital_keypad
                        _run_program
               _set_time_for_program
            _washing_program_display
                _water_level_display
 ---------------------------------------------------------------------------------
 (1) _water_level_display                                  3     3      0    1521
                                              5 BANK0      3     3      0
                         _clcd_print
                         _clcd_putch
                       _clear_screen
 ---------------------------------------------------------------------------------
 (1) _washing_program_display                              3     3      0    1521
                                              5 BANK0      3     3      0
                         _clcd_print
                         _clcd_putch
                       _clear_screen
 ---------------------------------------------------------------------------------
 (1) _set_time_for_program                                 0     0      0       0
 ---------------------------------------------------------------------------------
 (1) _run_program                                          8     8      0    9311
                                             56 BANK0      8     8      0
                            ___awdiv
                            ___awmod
                             ___flge
                            ___flmul
                            ___flsub
                            ___fltol
                             ___wmul
                           ___xxtofl
                         _clcd_print
                         _clcd_putch
                       _clear_screen
                  _door_status_check
 ---------------------------------------------------------------------------------
 (2) _door_status_check                                    0     0      0    1062
                         _clcd_print
                       _clear_screen
 ---------------------------------------------------------------------------------
 (2) _clear_screen                                         1     1      0     171
                                              6 COMMON     1     1      0
                         _clcd_write
 ---------------------------------------------------------------------------------
 (2) ___xxtofl                                            14    10      4     523
                                              2 COMMON     4     0      4
                                              0 BANK0     10    10      0
 ---------------------------------------------------------------------------------
 (2) ___wmul                                               6     2      4       8
                                              2 COMMON     6     2      4
 ---------------------------------------------------------------------------------
 (2) ___fltol                                             10     6      4     343
                                              6 COMMON     2     2      0
                                             36 BANK0      8     4      4
                            ___flmul (ARG)
                           ___xxtofl (ARG)
 ---------------------------------------------------------------------------------
 (2) ___flsub                                              8     0      8    3025
                                             36 BANK0      8     0      8
                            ___fladd
                            ___flmul (ARG)
                           ___xxtofl (ARG)
 ---------------------------------------------------------------------------------
 (3) ___fladd                                             20    12      8    2954
                                              2 COMMON     4     4      0
                                              0 BANK0     16     8      8
 ---------------------------------------------------------------------------------
 (2) ___flmul                                             26    18      8    2446
                                             10 BANK0     26    18      8
                          __Umul8_16
                           ___xxtofl (ARG)
 ---------------------------------------------------------------------------------
 (3) __Umul8_16                                            9     7      2     232
                                              2 COMMON     4     2      2
                                              0 BANK0      5     5      0
 ---------------------------------------------------------------------------------
 (2) ___flge                                              12     4      8     272
                                             44 BANK0     12     4      8
                            ___flmul (ARG)
                            ___flsub (ARG)
                           ___xxtofl (ARG)
 ---------------------------------------------------------------------------------
 (2) ___awmod                                              6     2      4      21
                                              2 COMMON     6     2      4
 ---------------------------------------------------------------------------------
 (2) ___awdiv                                              8     4      4      90
                                              2 COMMON     4     0      4
                                              0 BANK0      4     4      0
 ---------------------------------------------------------------------------------
 (1) _read_digital_keypad                                  2     2      0      47
                                              2 COMMON     2     2      0
 ---------------------------------------------------------------------------------
 (1) _power_on_screen                                      6     6      0    1821
                                              5 BANK0      6     6      0
                         _clcd_print
                         _clcd_putch
 ---------------------------------------------------------------------------------
 (2) _clcd_putch                                           2     1      1     390
                                              8 COMMON     1     0      1
                                              4 BANK0      1     1      0
                            ___awdiv (ARG)
                            ___awmod (ARG)
                         _clcd_write
 ---------------------------------------------------------------------------------
 (2) _clcd_print                                           3     0      3     891
                                              6 COMMON     3     0      3
                         _clcd_write
 ---------------------------------------------------------------------------------
 (1) _init_config                                          0     0      0     171
                          _init_clcd
                _init_digital_keypad
                        _init_timer2
 ---------------------------------------------------------------------------------
 (2) _init_timer2                                          0     0      0       0
 ---------------------------------------------------------------------------------
 (2) _init_digital_keypad                                  0     0      0       0
 ---------------------------------------------------------------------------------
 (2) _init_clcd                                            0     0      0     171
            _init_display_controller
 ---------------------------------------------------------------------------------
 (3) _init_display_controller                              2     2      0     171
                                              6 COMMON     2     2      0
                         _clcd_write
 ---------------------------------------------------------------------------------
 (3) _clcd_write                                           4     3      1     171
                                              2 COMMON     4     3      1
 ---------------------------------------------------------------------------------
 Estimated maximum stack depth 3
 ---------------------------------------------------------------------------------
 (Depth) Function   	        Calls       Base Space   Used Autos Params    Refs
 ---------------------------------------------------------------------------------
 (5) _isr                                                  2     2      0       0
                                              0 COMMON     2     2      0
 ---------------------------------------------------------------------------------
 Estimated maximum stack depth 5
 ---------------------------------------------------------------------------------

 Call Graph Graphs:

 _main (ROOT)
   _clcd_print
     _clcd_write
   _clear_screen
     _clcd_write
   _init_config
     _init_clcd
       _init_display_controller
         _clcd_write
     _init_digital_keypad
     _init_timer2
   _power_on_screen
     _clcd_print
     _clcd_putch
       ___awdiv (ARG)
       ___awmod (ARG)
       _clcd_write (ARG)
   _read_digital_keypad
   _run_program
     ___awdiv
     ___awmod
     ___flge
       ___flmul (ARG)
         __Umul8_16
         ___xxtofl (ARG)
       ___flsub (ARG)
         ___fladd
         ___flmul (ARG)
         ___xxtofl (ARG)
       ___xxtofl (ARG)
     ___flmul
     ___flsub
     ___fltol
       ___flmul (ARG)
       ___xxtofl (ARG)
     ___wmul
     ___xxtofl
     _clcd_print
     _clcd_putch
     _clear_screen
     _door_status_check
       _clcd_print
       _clear_screen
   _set_time_for_program
   _washing_program_display
     _clcd_print
     _clcd_putch
     _clear_screen
   _water_level_display
     _clcd_print
     _clcd_putch
     _clear_screen

 _isr (ROOT)

Address spaces:
Name               Size   Autos  Total    Usage
BANK3               96      0       0      0.0%
BITBANK3            96      0       0      0.0%
BANK2               96      0       0      0.0%
BITBANK2            96      0       0      0.0%
BANK1               80      5      43     53.8%
BITBANK1            80      0       0      0.0%
BANK0               80     64      79     98.8%
BITBANK0            80      0       0      0.0%
COMMON              14      9      12     85.7%
BITCOMMON           14      0       0      0.0%
DATA                 0      0     132      0.0%
STACK                0      0       0      0.0%


Microchip Technology PIC Macro Assembler V3.00 build 20241204225717 
Symbol Table                                                                                   Sun Jun 22 15:20:18 2025

                              pc 0002                   clcd_print@addr 0078                               l22 14DF  
                             l25 1558                               l34 15F9                               l19 167A  
                             l28 1521                     ___awdiv@sign 0021                               fsr 0004  
            ___wmul@multiplicand 0074           water_level_display@key 0027              __Umul8_16@word_mpld 0022  
                            l121 1537                              l201 0BA9                              l211 0BCA  
                            l221 0BFC                              l214 0BCF                              l206 0BB4  
                            l215 0BE5                              l232 0C23                              l216 0BEC  
                            l313 14EC                              l217 0BF2                              l137 0D5A  
                            l226 0C07                              l218 0BF7                              l155 14F9  
                            l235 0C3A                              l164 08FE                              l412 1589  
                            l252 16D0                              l229 0C1D                              l245 0C81  
                            l414 15A1                              l239 0C3F                              l175 0A94  
                            l192 0B88                              l281 14D4                              l249 169F  
                            l274 03E5                              l186 0B86                              l291 1789  
                            l195 0B8E                              l613 17EA                              l197 0B93  
                            l606 17FF                              l296 1788                              l616 17FF  
                            l713 0E05                              l708 0DD4                              l565 0869  
                            l821 071D                              l717 0E86                              l590 091D  
                            l830 15CA                              l734 0F52                              l726 0FFF  
                            l815 0699                              l719 0E5F                              l744 0F99  
                            l593 0989                              l809 0727                              l578 1727  
                            l738 0F76                              l755 0FF5                              l747 0FD5  
                            l828 15B8                              l756 0FFF                              l853 074C  
                            l598 09A2                              l854 075D                              l759 157C  
                            l855 07DD                              l866 07A7                              l867 07B3  
                            l859 078B                              _GIE 005F                              _RB0 0030  
                            _RC2 003A                              _RE1 0049                              _RE2 004A  
                            _PR2 0092             _set_time_for_program 0B87                              _min 0069  
                            _sec 006A                              _isr 15FA                   clcd_putch@addr 0078  
                            fsr0 0004                   clcd_putch@data 0024                              indf 0000  
                   ___awmod@sign 0077     read_digital_keypad@longpress 0068                     ___flmul@aexp 0038  
                   ___flmul@bexp 003D                     ___flmul@sign 0037                     ___flmul@temp 0042  
                   ___flmul@prod 003E                      _run_program 0043                     ___fltol@exp1 0077  
                           l3000 15A7                             l3002 15AE                             l3004 15B2  
                           l3022 14CF                             l3110 16D2                             l3006 15C1  
                           l3024 14E0                             l3120 16E6                             l3112 16D6  
                           l3008 15C6                             l3200 17F4                             l4000 0A5F  
          ??_read_digital_keypad 0072                             l3130 16FC                             l3122 16EC  
                           l3114 16DB                             l3210 03EA                             l3202 1559  
                           l3050 157D                             l4002 0A65                             l4010 0AA4  
                           l3140 171E                             l3132 1706                             l3124 16EF  
                           l3116 16DD                             l3108 16D1                             l3300 0669  
                           l3220 03FA                             l3212 03EC                             l3204 155D  
                           l3060 159D                             l3052 157F                             l4100 02F8  
                           l4020 0AC5                             l4012 0AAC                             l4004 0A98  
                           l3142 1723                             l3134 170C                             l3126 16F6  
                           l3118 16E1                             l3150 0931                             l3310 067E  
                           l3302 066A                             l3230 0414                             l3222 03FF  
                           l3214 03F0                             l3054 1583                             l4102 0304  
                           l4110 032D                             l4030 0B51                             l4022 0ACD  
                           l4014 0AB4                             l4006 0A9E                             l3136 1713  
                           l3128 16F8                             l3160 099F                             l3152 0939  
                           l3320 06A3                             l3312 0682                             l3304 0673  
                           l3240 0427                             l3232 0418                             l3224 0407  
                           l3216 03F4                             l3208 03E6                             l3056 1590  
                           l4120 03A1                             l4112 0348                             l4104 0310  
                           l4040 0058                             l4032 0B57                             l4024 0AD3  
                           l4016 0AB5                             l4008 0A9F                             l4200 0D6D  
                           l3138 1719                             l3162 09A1                             l3154 093D  
                           l3146 08FF                             l3330 06E1                             l3322 06B1  
                           l3314 0696                             l3306 0679                             l3250 0443  
                           l3242 042F                             l3234 041C                             l3226 0409  
                           l3218 03F5                             l3058 1597                             l4130 03C0  
                           l4122 03A8                             l4114 0363                             l4106 0316  
                           l4050 00B9                             l4042 0063                             l4034 0046  
                           l4026 0B13                             l4018 0ABA                             l4210 0D89  
                           l4202 0D75                             l3420 1749                             l3412 1733  
                           l3404 1729                             l3156 0961                             l3148 0915  
                           l3340 0713                             l3332 06EC                             l3324 06B5  
                           l3308 067D                             l3260 0482                             l3244 0431  
                           l3236 041D                             l3228 0411                             l3180 17BC  
                           l3172 179E                             l4140 03E0                             l4132 03CB  
                           l4124 03AD                             l4116 036B                             l4108 0322  
                           l4060 0115                             l4052 00C1                             l4044 0078  
                           l4036 004B                             l3500 0B87                             l4028 0B19  
                           l3430 1762                             l3414 173E                             l3422 174C  
                           l3406 172E                             l3158 0965                             l3342 0717  
                           l3334 06FB                             l3326 06CE                             l3318 069E  
                           l3270 0509                             l3262 049E                             l3254 044C  
                           l3246 0439                             l3238 0422                             l3182 17C0  
                           l3190 17D8                             l3174 17B1                             l3166 178A  
                           l3350 072B                             l4134 03D9                             l4126 03B0  
                           l4118 0386                             l4070 0191                             l4062 0120  
                           l4054 00DC                             l4046 0083                             l4038 0053  
                           l3510 0BAD                             l3502 0B8C                             l4206 0D7C  
                           l4214 0D92                             l4150 0CA3                             l4142 0C82  
                           l3432 1768                             l3440 176D                             l3424 1752  
                           l3416 1744                             l3344 0718                             l3336 0705  
                           l3328 06D4                             l3280 0576                             l3272 0517  
                           l3264 04C8                             l3256 045A                             l3248 043E  
                           l2800 0DA8                             l3176 17B2                             l3168 1795  
                           l3352 0730                             l4136 03DC                             l4128 03B5  
                           l4080 01F3                             l4072 01CC                             l4064 012B  
                           l4056 0102                             l4048 009E                             l3512 0BAE  
                           l4208 0D82                             l4216 0DA1                             l4160 0CD3  
                           l4152 0CAF                             l4144 0C88                             l3442 1776  
                           l3434 176A                             l3426 1759                             l3450 1788  
                           l3418 1747                             l3346 071F                             l3338 0707  
                           l3290 061D                             l3282 0593                             l3274 0534  
                           l3266 04E4                             l3258 0467                             l2810 0DB7  
                           l2802 0DAC                             l3178 17BA                             l3370 0782  
                           l3362 0760                             l3354 0734                             l4138 03DE  
                           l4090 0239                             l4082 01F7                             l4074 01E9  
                           l4066 0136                             l4058 0110                             l3522 0BD4  
                           l4170 0CF9                             l4162 0CD8                             l4154 0CB5  
                           l4146 0C8D                             l3444 177C                             l3428 175F  
                           l3292 0645                             l3284 05BE                             l3276 0542  
                           l3268 0500                             l2900 0E8A                             l2812 0DBC  
                           l2820 0DCC                             l2804 0DAE                             l3196 17DF  
                           l3188 17C8                             l3380 07B5                             l3372 0792  
                           l3364 076B                             l3356 0744                             l4092 0260  
                           l4084 0211                             l4076 01EC                             l4068 0156  
                           l3540 0C43                             l3532 0C0C                             l3516 0BB9  
                           l3508 0B98                             l4180 0D1A                             l4172 0D00  
                           l4164 0CE1                             l4156 0CC3                             l4148 0C98  
                           l3446 1786                             l3294 064E                             l3286 05CC  
                           l3278 055F                             l2910 0EB7                             l2902 0E8F  
                           l2830 0DE3                             l2822 0DD6                             l2814 0DC1  
                           l2806 0DB2                             l3198 17EF                             l3382 07CB  
                           l3374 079D                             l3366 0772                             l3358 0754  
                           l4094 026C                             l4086 0217                             l4078 01ED  
                           l3542 0C44                             l3534 0C21                             l3526 0C00  
                           l3550 0C5B                             l4182 0D1F                             l4190 0D45  
                           l4174 0D05                             l4166 0CE5                             l4158 0CCE  
                           l3800 1546                             l3296 065C                             l3288 05F7  
                           l2920 0EC9                             l2912 0EBB                             l2840 0DFA  
                           l2832 0DE7                             l2824 0DD8                             l2816 0DC9  
                           l2808 0DB6                             l3384 07D0                             l3376 07A1  
                           l3368 0774                             l4088 022D                             l4096 0278  
                           l3536 0C23                             l3528 0C01                             l4192 0D4D  
                           l4184 0D2A                             l4176 0D0D                             l4168 0CF3  
                           l3802 1547                             l3810 163C                             l3298 0665  
                           l2930 0F2D                             l2922 0ED2                             l2914 0EC2  
                           l2906 0E9A                             l2850 0E11                             l2842 0DFB  
                           l2834 0DE8                             l2826 0DDE                             l2818 0DCA  
                           l3386 07D4                             l3378 07AB                             l4098 027E  
                           l3546 0C4A                             l3538 0C29                             l4194 0D55  
                           l4186 0D35                             l4178 0D15                             l3804 154C  
                           l3820 1662                             l3812 1643                             l3900 0847  
                           l2940 0F5F                             l2932 0F30                             l2916 0EC4  
                           l2908 0EB3                             l2924 0ED5                             l2860 0E1B  
                           l2852 0E13                             l2836 0DED                             l2844 0DFD  
                           l2828 0DDF                             l3388 07D5                             l4196 0D5B  
                           l4188 0D40                             l3806 154F                             l3822 1669  
                           l3814 1653                             l3830 15E3                             l3910 0860  
                           l3902 084D                             l2950 0F7A                             l2934 0F35  
                           l2926 0EED                             l2918 0EC8                             l2870 0E25  
                           l2862 0E1D                             l2854 0E15                             l2846 0E0B  
                           l2838 0DF2                             l4198 0D64                             l3824 1675  
                           l3816 1658                             l3808 1634                             l3840 14D8  
                           l3920 1531                             l3832 15E9                             l3912 0865  
                           l3904 084E                             l2952 0F7E                             l2944 0F68  
                           l2928 0F2B                             l2936 0F44                             l2960 0F8B  
                           l2872 0E27                             l2864 0E1F                             l2856 0E17  
                           l2848 0E0F                             l2880 0E2F                             l3818 165F  
                           l3842 14D9                             l3922 1534                             l3826 15CB  
                           l3906 0855                             l2970 0F9E                             l2962 0F8C  
                           l2954 0F80                             l2946 0F71                             l2938 0F5A  
                           l2890 0E6E                             l2882 0E30                             l2874 0E29  
                           l2866 0E21                             l2858 0E19                             l3834 14ED  
                           l3850 1681                             l3844 14DA                             l3924 1535  
                           l3916 1522                             l3828 15D3                             l3940 0880  
                           l3908 085B                             l2980 0FDA                             l2972 0FA3  
                           l2964 0F90                             l2956 0F85                             l2948 0F75  
                           l2892 0E74                             l2884 0E47                             l2876 0E2B  
                           l2868 0E23                             l3836 14F4                             l3860 16AA  
                           l3852 1684                             l3838 14D5                             l3926 1536  
                           l3918 152C                             l3846 1510                             l3950 08A2  
                           l3942 0896                             l3934 086D                             l2990 0FF1  
                           l2982 0FDF                             l2974 0FB1                             l2966 0F96  
                           l2958 0F87                             l2894 0E75                             l2886 0E63  
                           l2878 0E2D                             l3870 16C5                             l3862 16AD  
                           l3854 1689                             l3960 08AD                             l3952 08A6  
                           l3936 0876                             l3928 086A                             l3880 0813  
                           l3872 0805                             l2992 0FF3                             l2984 0FE7  
                           l2976 0FB5                             l2896 0E7E                             l2888 0E6C  
                           l3864 16AE                             l3856 1694                             l3848 167B  
                           l3970 08E9                             l3962 08C1                             l3954 08AC  
                           l3938 087A                             l3890 0826                             l3882 0817  
                           l3874 0808                             l2994 0FFA                             l2986 0FEC  
                           l2978 0FD3                             l2898 0E80                             l3866 16AF  
                           l3858 16A5                             l3796 1539                             l3972 08EF  
                           l3964 08CF                             l3948 0899                             l3892 0829  
                           l3884 081C                             l3876 080C                             l2996 0FFE  
                           l2988 0FED                             l3868 16BA                             l3980 09B2  
                           l3798 1544                             l3966 08DA                             l3894 0830  
                           l3886 081E                             l3878 0811                             l2998 15A5  
                           l3990 09D3                             l3982 09BA                             l3974 09A6  
                           l3968 08E5                             l3896 0832                             l3888 0820  
                           l3992 09DB                             l3984 09C2                             l3976 09AC  
                           l3898 0836                             l3994 09E1                             l3986 09C3  
                           l3978 09B1                             l3996 0A21                             l3988 09C8  
                           ?_isr 0070                             l3998 0A27                             STR_1 1174  
                           STR_2 117A                             STR_3 110B                             STR_4 115B  
                           STR_5 10F5                             STR_6 1100                             STR_7 1133  
                           STR_8 1115                             STR_9 1129                             u4100 16D6  
                           u4101 16D5                             u4110 16E1                             u4111 16E0  
                           u4120 16EC                             u4200 0931                             u4121 16EB  
                           u4201 0930                             u4210 093D                             u4211 093C  
                           u4140 16FC                             u3500 0DED                             u4141 16FB  
                           u4221 094C                             u3501 0DEC                             u4150 1706  
                           u4230 0965                             u4222 094D                             u3510 0DF2  
                           u4310 17D7                             u4151 1705                             u4135 16F0  
                           u4231 0964                             u4223 0952                             u3511 0DF1  
                           u4311 17D6                             u4224 0953                             u4400 0422  
                           u3600 0E86                             u3520 0E0B                             u4320 17DE  
                           u4241 0974                             u4225 0958                             u4401 0421  
                           u3601 0E85                             u3521 0E0A                             u4321 17DD  
                           u4305 17C9                             u4170 1719                             u4250 099F  
                           u4242 0975                             u4226 0959                             u4410 0427  
                           u3610 0E8A                             u3530 0E0F                             u3450 0DB6  
                           u4171 1718                             u4155 1702                             u4251 099E  
                           u4243 097A                             u4411 0426                             u3611 0E89  
                           u3531 0E0E                             u3451 0DB5                             u4180 171E  
                           u4244 097B                             u4420 043E                             u3700 0F18  
                           u3620 0E8F                             u3540 0E47                             u3460 0DBC  
                           u4340 17EF                             u4260 1795                             u4181 171D  
                           u4165 170D                             u4245 0980                             u4501 0551  
                           u4421 043D                             u3701 0F19                             u3621 0E8E  
                           u3541 0E46                             u3461 0DBB                             u4341 17EE  
                           u4261 1794                             u4246 0981                             u4190 0915  
                           u4502 0558                             u4430 0443                             u3710 0F35  
                           u3702 0F1E                             u3550 0E52                             u3470 0DC1  
                           u4350 17F4                             u4270 17AC                             u4255 099B  
                           u4191 0914                             u4503 055F                             u4431 0442  
                           u3711 0F34                             u3703 0F1F                             u3631 0EA5  
                           u3551 0E50                             u3471 0DC0                             u4351 17F3  
                           u4335 17E1                             u5400 0826                             u4360 03F4  
                           u3800 0F96                             u3720 0F5A                             u3640 0EB7  
                           u3632 0EAC                             u3560 0E53                             u3480 0DDE  
                           u4280 17C0                             u5401 0825                             u4521 0585  
                           u4441 0490                             u4361 03F3                             u3801 0F95  
                           u3721 0F59                             u3641 0EB6                             u3633 0EB3  
                           u3545 0E43                             u3481 0DDD                             u4281 17BF  
                           u5330 1541                             u4610 0669                             u4522 058C  
                           u4442 0497                             u4370 03FA                             u3810 0F9D  
                           u3730 0F5F                             u3650 0EBB                             u3570 0E63  
                           u3490 0DE7                             u4290 17C7                             u5331 153D  
                           u4611 0668                             u4531 05B0                             u4523 0593  
                           u4515 0561                             u4451 04AC                             u4443 049E  
                           u4371 03F9                             u3811 0F9C                             u3731 0F5E  
                           u3651 0EBA                             u3571 0E62                             u3491 0DE6  
                           u4291 17C6                             u4275 17A7                             _PEIE 005E  
                           u5500 08EF                             u5420 0836                             u4700 06E1  
                           u4532 05B7                             u4452 04B3                             u4380 03FF  
                           u3900 0FFE                             u3820 0FA3                             u3660 0EC8  
                           u3580 0E74                             u5501 08EE                             u5421 0835  
                           u4701 06E0                             u4605 065E                             u4541 05DB  
                           u4533 05BE                             u4461 04D6                             u4453 04BA  
                           u4381 03FE                             u3901 0FFD                             u3821 0FA2  
                           u3661 0EC7                             u3581 0E73                             u5350 15F9  
                           u3910 15B2                             u4710 06FB                             u4630 067D  
                           u4550 0603                             u4542 05E2                             u4462 04DD  
                           u4390 041C                             u3830 0FB5                             u3750 0F75  
                           u5510 09AC                             u5351 15F8                             u5415 082A  
                           u3911 15B1                             u4711 06FA                             u4631 067C  
                           u4543 05E9                             u4471 04F2                             u4463 04E4  
                           u4391 041B                             u3831 0FB4                             u3751 0F74  
                           u5511 09AB                             u5344 1544                             u5440 0847  
                           u4720 0717                             u4640 0682                             u4472 04F9  
                           u3840 0FC4                             u3760 0F7A                             u3680 0EED  
                           u5360 1681                             u5520 09BA                             u5600 0AD3  
                           u5441 0846                             u4721 0716                             u4705 06DD  
                           u4641 0681                             u4625 066C                             u4561 060F  
                           u4473 0500                             u3761 0F79                             u3745 0F6A  
                           u3681 0EEC                             u5361 1680                             u5521 09B9  
                           u5601 0AD2                             u3930 15C6                             u4650 0696  
                           u4570 062B                             u4562 0616                             u3850 0FD3  
                           u3770 0F85                             u4810 07A1                             u4730 0730  
                           u5370 16A5                             u5530 09C2                             u5610 0B19  
                           u5435 0837                             u3931 15C5                             u4715 06F7  
                           u4651 0695                             u4563 061D                             u4555 05FE  
                           u4491 0526                             u3851 0FD2                             u3771 0F84  
                           u3691 0F04                             u3683 0EE9                             u3675 0ECB  
                           u3595 0E77                             u4811 07A0                             u4731 072F  
                           u5371 16A4                             u5531 09C1                             u5611 0B18  
                           i1l52 162D                             u4900 1752                             u5460 085B  
                           u5380 080C                             u4660 069D                             u4492 052D  
                           u3860 0FDA                             u3780 0F8B                             u3692 0F05  
                           u4820 07A7                             u4740 0734                             u5700 0316  
                           u5540 09E1                             u5620 0B57                             u4901 1751  
                           u5461 085A                             u5445 0843                             u5381 080B  
                           u3925 15B9                             u4661 069C                             u4581 0637  
                           u4493 0534                             u4485 0502                             u3861 0FD9  
                           u3845 0FBF                             u3781 0F8A                             u3693 0F0A  
                           u4821 07A6                             u4805 0796                             u4741 0733  
                           u5701 0315                             u5541 09E0                             u5621 0B56  
                           u4910 1759                             u5470 0860                             u5390 0817  
                           u4670 06A3                             u4582 063E                             u3870 0FDF  
                           u3790 0F90                             u3694 0F0B                             u4830 07AB  
                           u4750 0754                             u5710 03A8                             u5630 0053  
                           u5550 0A27                             u4911 1758                             u5471 085F  
                           u5455 084F                             u5391 0816                             u4671 06A2  
                           u4583 0645                             u4575 0626                             u3871 0FDE  
                           u3791 0F8F                             u3695 0F10                             u4831 07AA  
                           u4751 0753                             u5711 03A7                             u5631 0052  
                           u5551 0A26                             u5480 0880                             u4920 175F  
                           u4680 06B5                             u3880 0FEC                             u3696 0F11  
                           u3960 1583                             u4840 07C0                             u5720 03AD  
                           u5640 01F3                             u5560 0A65                             u5800 0D4D  
                           u5481 087F                             u4921 175E                             u4681 06B4  
                           u3881 0FEB                             u3961 1582                             u5721 03AC  
                           u5641 01F2                             u5561 0A64                             u5801 0D4C  
                           u5490 08AC                             u4930 1768                             u4690 06C4  
                           u3890 0FF1                             u4850 07D0                             u4770 0771  
                           u5650 0217                             u5570 0A9E                             u5810 0D55  
                           u5730 0CC3                             u5491 08AB                             u4931 1767  
                           u4595 0647                             u3891 0FF0                             u4851 07CF  
                           u4771 0770                             u5651 0216                             u5571 0A9D  
                           u5811 0D54                             u5731 0CC2                             u4940 1776  
                           u4860 07D4                             u5660 022D                             u5580 0AAC  
                           u5820 0D75                             u5740 0CCE                             u4941 1775  
                           u4861 07D3                             u4845 07BB                             u4765 0763  
                           u5661 022C                             u5581 0AAB                             u5821 0D74  
                           u5741 0CCD                             u4950 177C                             u4870 172E  
                           u3990 159D                             u4790 0791                             u5670 0260  
                           u5590 0AB4                             u5830 0D82                             u5750 0CF3  
                           u4951 177B                             u4871 172D                             u4695 06BF  
                           u3991 159C                             u3975 158A                             u4791 0790  
                           u5671 025F                             u5591 0AB3                             u5831 0D81  
                           u5751 0CF2                             u4960 1786                             u4880 173E  
                           u5680 027E                             u5760 0CF9                             u4961 1785  
                           u4881 173D                             u3985 1591                             u4785 0783  
                           u5681 027D                             u5665 0229                             u5761 0CF8  
                           u4890 1744                             u5690 02F8                             u5770 0D00  
                           u5907 1647                             u4891 1743                             u5691 02F7  
                           u5675 025C                             u5771 0CFF                             u5780 0D0D  
                           u5917 1655                             u5781 0D0C                             u5790 0D15  
                           u5927 166B                             u5847 010A                             u5791 0D14  
                           u5937 1677                             u5857 03D3                             u5947 1549  
                           u5867 14F6                             u5957 1553                             u5877 08C9  
                           u5887 08F7                             u5897 1638                             _main 0C82  
                           btemp 007E                             start 000C                   clcd_write@byte 0075  
                 clcd_write@mode 0072          __end_of_power_on_screen 08FF        ??_washing_program_display 0025  
                          ??_isr 0070                    ___fltol@sign1 0076                  __end_of___fladd 1000  
                          ?_main 0070                  __end_of___awdiv 086A                            STR_10 113C  
                          STR_11 111F                            STR_20 1045                            STR_12 10EA  
                          STR_21 10AE                            STR_13 118A                            STR_30 10DF  
                          STR_22 1094                            STR_14 118F                            STR_31 1180  
                          STR_23 10BB                            STR_15 1154                            STR_40 116E  
                          STR_32 1034                            STR_24 1023                            STR_16 1185  
                          STR_41 1162                            STR_33 114D                            STR_25 1000  
                          STR_17 1193                            STR_42 116E                            STR_34 1168  
                          STR_26 1076                            STR_18 1056                            STR_43 1162  
                          STR_35 1145                            STR_27 10D3                            STR_19 1012  
                          STR_36 10DF                            STR_44 116E                            STR_28 10C7  
                __end_of___awmod 1728                            STR_37 1180                            STR_45 10FB  
                          STR_29 10A1                            STR_38 1034                            STR_46 1066  
                          STR_39 10FB                            STR_47 1086                  __end_of___flmul 0728  
                __end_of___flsub 157D                  __end_of___fltol 1800                  ___awdiv@divisor 0072  
          ?_set_time_for_program 0070                     ?_init_config 0070                  ___awdiv@counter 0020  
                          _PORTB 0006                            _PORTD 0008                            _TRISB 0086  
                          _TRISD 0088                     ?_init_timer2 0070             __end_of_clear_screen 14FA  
          run_program@total_time 0062                            main@j 00C2                            pclath 000A  
                          status 0003                            wtemp0 007E                  __initialization 000F  
                   __end_of_main 0DA8                           ??_main 0079                   run_program@key 005F  
__end_of_washing_program_display 0A95                 ___awdiv@dividend 0074                           i1l2670 161A  
                         i1l2662 15FA                           i1l2672 161D                           i1l2680 162B  
                         i1l2664 1600                           i1l2674 1622                           i1l2666 1611  
                         i1l2676 1627                           i1l2668 1613                           i1l2678 1629  
                         u330_20 1627                           u330_21 1626                           u326_20 1600  
                         u326_21 15FF                           u327_20 1611                           u327_21 1610  
                         u328_20 161A                           u328_21 1619                           u329_20 1622  
                         u329_21 1621                           _TMR2IE 0461                           _TMR2IF 0061  
                         _TMR2ON 0092                           _TRISC1 0439                           _TRISC2 043A  
                         _TRISE1 0449                           _TRISE2 044A                 __end_of___xxtofl 07DE  
    __end_of_init_digital_keypad 14D5                           ___flge 08FF          _init_display_controller 1634  
                      ??___fladd 0028                           ___wmul 157D                        ??___awdiv 0076  
               ?_power_on_screen 0070                        ??___awmod 0076                        ??___flmul 0032  
                      ??___flsub 0076                        ??___fltol 0048      __end_of_water_level_display 0B87  
               ___awdiv@quotient 0022                  ___awmod@divisor 0072           ??_set_time_for_program 0072  
                ___awmod@counter 0076                           saved_w 007E                       ___flge@ff1 004C  
                     ___flge@ff2 0050                     ___xxtofl@arg 0026                     ___xxtofl@exp 0025  
                   ___xxtofl@val 0072          __end_of__initialization 003F                       ___fltol@f1 0044  
                 __pcstackCOMMON 0070                     __pidataBANK0 0803                     __pidataBANK1 07DE  
                   ?_run_program 0070                       __pbssBANK0 0060                       __pbssBANK1 00C7  
                run_program@time 0060        ??_init_display_controller 0076                       _clcd_print 15CB  
                     _clcd_putch 150D                       _clcd_write 1538                __end_of__Umul8_16 15CB  
                     __pmaintext 0C82                     _clear_screen 14ED                          ?___flge 004C  
                        ?___wmul 0072                       __pintentry 0004                          _T2CKPS0 0090  
                        _T2CKPS1 0091      __end_of_read_digital_keypad 178A                        ?___xxtofl 0072  
                     __stringtab 1197                          ___fladd 0DA8                          ___awdiv 0805  
                        ___awmod 16D1                          ___flmul 03E6                          ___flsub 1559  
                        ___fltol 178A                          __ptext1 0A95                          __ptext2 09A3  
                        __ptext3 0B87                          __ptext4 0043                          __ptext5 167B  
                        __ptext6 14ED                          __ptext7 0728                          __ptext8 157D  
                        __ptext9 178A  __end_of_init_display_controller 167B                __end_of_init_clcd 14E0  
                     ??___xxtofl 0020                 ___awmod@dividend 0074                          main@key 00C6  
           end_of_initialization 003F                   _operation_mode 006C                      ?_clcd_print 0076  
                    ?_clcd_putch 0078                      ?_clcd_write 0072         ?_washing_program_display 0070  
                     _reset_mode 006B                     __pstringtext 1000                       _rinse_time 0064  
                      _PORTCbits 0007                      ___fladd@grs 0075       washing_program_display@key 0027  
                     _program_no 007B                    ___xxtofl@sign 0024                    clcd_print@str 0076  
                    ___flmul@grs 0039                   __end_of___flge 09A3                   __end_of___wmul 15A2  
            start_initialization 000F                      __end_of_isr 1634                         ??___flge 0054  
                       ??___wmul 0076                       init_fetch0 14FA                        __Umul8_16 15A2  
                    __pdataBANK0 006D                      __pdataBANK1 00A0       read_digital_keypad@pre_key 0079  
                  ??_init_config 0078                        ___fladd@a 0024                        ___fladd@b 0020  
                  ??_init_timer2 0072                        ___flmul@a 002E                        ___flmul@b 002A  
                    __pbssCOMMON 0079                        ___flsub@a 0044                        ___flsub@b 0048  
                      ___latbits 0002                    __pcstackBANK0 0020                    __pcstackBANK1 00C2  
                      __pnvBANK0 006B             power_on_screen@i_188 0029                         ?___fladd 0020  
                       ?___awdiv 0072                         ?___awmod 0072                         ?___flmul 002A  
                       ?___flsub 0044                         ?___fltol 0044                       ?__Umul8_16 0072  
                      __pstrings 1197                        _init_clcd 14D5              __end_of_init_config 1538  
              ??_power_on_screen 0025              __end_of_init_timer2 14ED         ?_init_display_controller 0070  
              interrupt_function 0004                   ___wmul@product 0076                     ??_clcd_print 0079  
                   ??_clcd_putch 0079                     ??_clcd_write 0073                  _water_level_arr 00B8  
                      _wash_time 0066                        _spin_time 00C7                      __stringbase 11A9  
                      main@j_178 00C4                ___wmul@multiplier 0072               __end_of_clcd_print 15FA  
             __end_of_clcd_putch 1522               __end_of_clcd_write 1559                       ?_init_clcd 0070  
            _init_digital_keypad 14CF              _water_level_display 0A95                      ??__Umul8_16 0074  
           ?_init_digital_keypad 0070               __end_of__stringtab 11A9                      _init_config 1522  
           ?_water_level_display 0070                         ___xxtofl 0728                      _init_timer2 14E0  
                  ??_run_program 0058                         __ptext10 1559                         __ptext11 0DA8  
                       __ptext20 15CB                         __ptext12 03E6                         __ptext21 1522  
                       __ptext13 15A2                         __ptext22 14E0                         __ptext14 08FF  
                       __ptext23 14CF                         __ptext15 16D1                         __ptext24 14D5  
                       __ptext16 0805                         __ptext25 1634                         __ptext17 1728  
                       __ptext26 1538                         __ptext18 086A                         __ptext27 15FA  
                       __ptext19 150D     __end_of_set_time_for_program 0C82          read_digital_keypad@mode 0073  
        read_digital_keypad@once 006D                    ?_clear_screen 0070            ??_init_digital_keypad 0072  
              _door_status_check 167B               ?_door_status_check 0070            ??_water_level_display 0025  
                       isr@count 00C9              ??_door_status_check 0079                         init_ram0 14FE  
                    ??_init_clcd 0078                         intlevel1 0000               power_on_screen@pos 002A  
            __end_of_run_program 03E6                        stringcode 11A1                   ??_clear_screen 0076  
      __end_of_door_status_check 16D1              _read_digital_keypad 1728                _water_level_index 007A  
        _washing_program_display 09A3           __Umul8_16@multiplicand 0072                  _power_on_screen 086A  
                   _washing_prog 00A0                         stringtab 1197                    ___fladd@signs 0072  
           ?_read_digital_keypad 0070                 power_on_screen@i 0028                     ___fladd@aexp 0073  
                   ___fladd@bexp 0074             __Umul8_16@multiplier 0024                __Umul8_16@product 0020  
